	.file	"cxx11-ios_failure.cc"
	.text
.Ltext0:
	.section	.rodata._ZNK12_GLOBAL__N_117io_error_category4nameEv.str1.1,"aMS",@progbits,1
.LC0:
	.string	"iostream"
	.section	.text._ZNK12_GLOBAL__N_117io_error_category4nameEv,"ax",@progbits
	.align 2
	.p2align 4,,15
	.type	_ZNK12_GLOBAL__N_117io_error_category4nameEv, @function
_ZNK12_GLOBAL__N_117io_error_category4nameEv:
.LVL0:
.LFB1409:
	.file 1 "../../../../../libstdc++-v3/src/c++11/cxx11-ios_failure.cc"
	.loc 1 50 5 view -0
	.cfi_startproc
	.loc 1 51 7 view .LVU1
	.loc 1 51 26 is_stmt 0 view .LVU2
	leaq	.LC0(%rip), %rax
	ret
	.cfi_endproc
.LFE1409:
	.size	_ZNK12_GLOBAL__N_117io_error_category4nameEv, .-_ZNK12_GLOBAL__N_117io_error_category4nameEv
	.section	.text._ZN12_GLOBAL__N_117io_error_categoryD2Ev,"ax",@progbits
	.align 2
	.p2align 4,,15
	.type	_ZN12_GLOBAL__N_117io_error_categoryD2Ev, @function
_ZN12_GLOBAL__N_117io_error_categoryD2Ev:
.LVL1:
.LFB1780:
	.loc 1 47 10 is_stmt 1 view -0
	.cfi_startproc
.LBB692:
	.loc 1 47 10 is_stmt 0 view .LVU4
	leaq	16+_ZTVN12_GLOBAL__N_117io_error_categoryE(%rip), %rax
	movq	%rax, (%rdi)
	jmp	_ZNSt3_V214error_categoryD2Ev@PLT
.LVL2:
	.loc 1 47 10 view .LVU5
.LBE692:
	.cfi_endproc
.LFE1780:
	.size	_ZN12_GLOBAL__N_117io_error_categoryD2Ev, .-_ZN12_GLOBAL__N_117io_error_categoryD2Ev
	.set	_ZN12_GLOBAL__N_117io_error_categoryD1Ev,_ZN12_GLOBAL__N_117io_error_categoryD2Ev
	.section	.text._ZN12_GLOBAL__N_117io_error_categoryD0Ev,"ax",@progbits
	.align 2
	.p2align 4,,15
	.type	_ZN12_GLOBAL__N_117io_error_categoryD0Ev, @function
_ZN12_GLOBAL__N_117io_error_categoryD0Ev:
.LVL3:
.LFB1782:
	.loc 1 47 10 is_stmt 1 view -0
	.cfi_startproc
.LBB693:
.LBI693:
	.loc 1 47 10 view .LVU7
.LBB694:
	leaq	16+_ZTVN12_GLOBAL__N_117io_error_categoryE(%rip), %rax
.LBE694:
.LBE693:
	pushq	%rbx
	.cfi_def_cfa_offset 16
	.cfi_offset 3, -16
	.loc 1 47 10 is_stmt 0 view .LVU8
	movq	%rdi, %rbx
.LBB696:
.LBB695:
	movq	%rax, (%rdi)
	call	_ZNSt3_V214error_categoryD2Ev@PLT
.LVL4:
	.loc 1 47 10 view .LVU9
.LBE695:
.LBE696:
	movq	%rbx, %rdi
	popq	%rbx
	.cfi_def_cfa_offset 8
.LVL5:
	.loc 1 47 10 view .LVU10
	jmp	_ZdlPv@PLT
.LVL6:
	.loc 1 47 10 view .LVU11
	.cfi_endproc
.LFE1782:
	.size	_ZN12_GLOBAL__N_117io_error_categoryD0Ev, .-_ZN12_GLOBAL__N_117io_error_categoryD0Ev
	.section	.text._ZNSt8ios_base7failureB5cxx11D2Ev,"ax",@progbits
	.align 2
	.p2align 4,,15
	.globl	_ZNSt8ios_base7failureB5cxx11D2Ev
	.type	_ZNSt8ios_base7failureB5cxx11D2Ev, @function
_ZNSt8ios_base7failureB5cxx11D2Ev:
.LVL7:
.LFB1429:
	.loc 1 96 3 is_stmt 1 view -0
	.cfi_startproc
.LBB697:
	.loc 1 96 31 is_stmt 0 view .LVU13
	movq	_ZTVNSt8ios_base7failureB5cxx11E@GOTPCREL(%rip), %rax
	addq	$16, %rax
	movq	%rax, (%rdi)
	jmp	_ZNSt12system_errorD2Ev@PLT
.LVL8:
	.loc 1 96 31 view .LVU14
.LBE697:
	.cfi_endproc
.LFE1429:
	.size	_ZNSt8ios_base7failureB5cxx11D2Ev, .-_ZNSt8ios_base7failureB5cxx11D2Ev
	.globl	_ZNSt8ios_base7failureB5cxx11D1Ev
	.set	_ZNSt8ios_base7failureB5cxx11D1Ev,_ZNSt8ios_base7failureB5cxx11D2Ev
	.section	.text._ZNSt8ios_base7failureB5cxx11D0Ev,"ax",@progbits
	.align 2
	.p2align 4,,15
	.globl	_ZNSt8ios_base7failureB5cxx11D0Ev
	.type	_ZNSt8ios_base7failureB5cxx11D0Ev, @function
_ZNSt8ios_base7failureB5cxx11D0Ev:
.LVL9:
.LFB1431:
	.loc 1 96 3 is_stmt 1 view -0
	.cfi_startproc
	.loc 1 96 3 is_stmt 0 view .LVU16
	pushq	%rbx
	.cfi_def_cfa_offset 16
	.cfi_offset 3, -16
	.loc 1 96 3 view .LVU17
	movq	%rdi, %rbx
	.loc 1 97 5 view .LVU18
	call	_ZNSt8ios_base7failureB5cxx11D1Ev@PLT
.LVL10:
	.loc 1 97 5 view .LVU19
	movq	%rbx, %rdi
	popq	%rbx
	.cfi_def_cfa_offset 8
.LVL11:
	.loc 1 97 5 view .LVU20
	jmp	_ZdlPv@PLT
.LVL12:
	.loc 1 97 5 view .LVU21
	.cfi_endproc
.LFE1431:
	.size	_ZNSt8ios_base7failureB5cxx11D0Ev, .-_ZNSt8ios_base7failureB5cxx11D0Ev
	.section	.text._ZNKSt8ios_base7failureB5cxx114whatEv,"ax",@progbits
	.align 2
	.p2align 4,,15
	.globl	_ZNKSt8ios_base7failureB5cxx114whatEv
	.type	_ZNKSt8ios_base7failureB5cxx114whatEv, @function
_ZNKSt8ios_base7failureB5cxx114whatEv:
.LVL13:
.LFB1432:
	.loc 1 101 3 is_stmt 1 view -0
	.cfi_startproc
	.loc 1 101 5 view .LVU23
	.loc 1 101 31 is_stmt 0 view .LVU24
	jmp	_ZNKSt13runtime_error4whatEv@PLT
.LVL14:
	.loc 1 101 31 view .LVU25
	.cfi_endproc
.LFE1432:
	.size	_ZNKSt8ios_base7failureB5cxx114whatEv, .-_ZNKSt8ios_base7failureB5cxx114whatEv
	.section	.text._ZNSt19__iosfail_type_infoD2Ev,"ax",@progbits
	.align 2
	.p2align 4,,15
	.globl	_ZNSt19__iosfail_type_infoD2Ev
	.type	_ZNSt19__iosfail_type_infoD2Ev, @function
_ZNSt19__iosfail_type_infoD2Ev:
.LVL15:
.LFB1441:
	.loc 1 128 9 is_stmt 1 view -0
	.cfi_startproc
.LBB698:
	.loc 1 128 9 is_stmt 0 view .LVU27
	movq	_ZTVSt19__iosfail_type_info@GOTPCREL(%rip), %rax
	addq	$16, %rax
	movq	%rax, (%rdi)
	jmp	_ZN10__cxxabiv120__si_class_type_infoD2Ev@PLT
.LVL16:
	.loc 1 128 9 view .LVU28
.LBE698:
	.cfi_endproc
.LFE1441:
	.size	_ZNSt19__iosfail_type_infoD2Ev, .-_ZNSt19__iosfail_type_infoD2Ev
	.globl	_ZNSt19__iosfail_type_infoD1Ev
	.set	_ZNSt19__iosfail_type_infoD1Ev,_ZNSt19__iosfail_type_infoD2Ev
	.section	.text._ZNSt19__iosfail_type_infoD0Ev,"ax",@progbits
	.align 2
	.p2align 4,,15
	.globl	_ZNSt19__iosfail_type_infoD0Ev
	.type	_ZNSt19__iosfail_type_infoD0Ev, @function
_ZNSt19__iosfail_type_infoD0Ev:
.LVL17:
.LFB1443:
	.loc 1 128 9 is_stmt 1 view -0
	.cfi_startproc
	.loc 1 128 9 is_stmt 0 view .LVU30
	pushq	%rbx
	.cfi_def_cfa_offset 16
	.cfi_offset 3, -16
	.loc 1 128 9 view .LVU31
	movq	%rdi, %rbx
	call	_ZNSt19__iosfail_type_infoD1Ev@PLT
.LVL18:
	.loc 1 128 9 view .LVU32
	movq	%rbx, %rdi
	popq	%rbx
	.cfi_def_cfa_offset 8
.LVL19:
	.loc 1 128 9 view .LVU33
	jmp	_ZdlPv@PLT
.LVL20:
	.loc 1 128 9 view .LVU34
	.cfi_endproc
.LFE1443:
	.size	_ZNSt19__iosfail_type_infoD0Ev, .-_ZNSt19__iosfail_type_infoD0Ev
	.section	.text._ZNKSt19__iosfail_type_info11__do_upcastEPKN10__cxxabiv117__class_type_infoEPPv,"ax",@progbits
	.align 2
	.p2align 4,,15
	.globl	_ZNKSt19__iosfail_type_info11__do_upcastEPKN10__cxxabiv117__class_type_infoEPPv
	.type	_ZNKSt19__iosfail_type_info11__do_upcastEPKN10__cxxabiv117__class_type_infoEPPv, @function
_ZNKSt19__iosfail_type_info11__do_upcastEPKN10__cxxabiv117__class_type_infoEPPv:
.LVL21:
.LFB1444:
	.loc 1 144 3 is_stmt 1 view -0
	.cfi_startproc
	.loc 1 148 5 view .LVU36
	.loc 1 144 3 is_stmt 0 view .LVU37
	pushq	%r12
	.cfi_def_cfa_offset 16
	.cfi_offset 12, -16
	movq	%rdi, %r12
	.loc 1 148 33 view .LVU38
	movq	%rsi, %rdi
.LVL22:
	.loc 1 144 3 view .LVU39
	pushq	%rbp
	.cfi_def_cfa_offset 24
	.cfi_offset 6, -24
	movq	%rsi, %rbp
	pushq	%rbx
	.cfi_def_cfa_offset 32
	.cfi_offset 3, -32
	.loc 1 144 3 view .LVU40
	movq	%rdx, %rbx
	.loc 1 148 33 view .LVU41
	call	_ZSt24__is_ios_failure_handlerPKN10__cxxabiv117__class_type_infoE@PLT
.LVL23:
	.loc 1 148 5 view .LVU42
	testb	%al, %al
	je	.L19
	.loc 1 150 2 is_stmt 1 view .LVU43
	.loc 1 150 52 is_stmt 0 view .LVU44
	addq	$32, (%rbx)
	.loc 1 151 2 is_stmt 1 view .LVU45
	.loc 1 155 3 is_stmt 0 view .LVU46
	popq	%rbx
	.cfi_remember_state
	.cfi_def_cfa_offset 24
.LVL24:
	.loc 1 155 3 view .LVU47
	popq	%rbp
	.cfi_def_cfa_offset 16
.LVL25:
	.loc 1 155 3 view .LVU48
	popq	%r12
	.cfi_def_cfa_offset 8
.LVL26:
	.loc 1 155 3 view .LVU49
	ret
.LVL27:
	.p2align 4,,10
	.p2align 3
.L19:
	.cfi_restore_state
	.loc 1 154 5 is_stmt 1 view .LVU50
	.loc 1 154 42 is_stmt 0 view .LVU51
	movq	%rbx, %rdx
	movq	%rbp, %rsi
	.loc 1 155 3 view .LVU52
	popq	%rbx
	.cfi_def_cfa_offset 24
.LVL28:
	.loc 1 154 42 view .LVU53
	movq	%r12, %rdi
	.loc 1 155 3 view .LVU54
	popq	%rbp
	.cfi_def_cfa_offset 16
.LVL29:
	.loc 1 155 3 view .LVU55
	popq	%r12
	.cfi_def_cfa_offset 8
.LVL30:
	.loc 1 154 42 view .LVU56
	jmp	_ZNK10__cxxabiv117__class_type_info11__do_upcastEPKS0_PPv@PLT
.LVL31:
	.loc 1 154 42 view .LVU57
	.cfi_endproc
.LFE1444:
	.size	_ZNKSt19__iosfail_type_info11__do_upcastEPKN10__cxxabiv117__class_type_infoEPPv, .-_ZNKSt19__iosfail_type_info11__do_upcastEPKN10__cxxabiv117__class_type_infoEPPv
	.section	.text._ZNSt13__ios_failureD2Ev,"axG",@progbits,_ZNSt13__ios_failureD5Ev,comdat
	.align 2
	.p2align 4,,15
	.weak	_ZNSt13__ios_failureD2Ev
	.type	_ZNSt13__ios_failureD2Ev, @function
_ZNSt13__ios_failureD2Ev:
.LVL32:
.LFB1437:
	.loc 1 117 5 is_stmt 1 view -0
	.cfi_startproc
	.cfi_personality 0x9b,DW.ref.__gxx_personality_v0
	.cfi_lsda 0x1b,.LLSDA1437
.LBB699:
	.loc 1 118 5 is_stmt 0 view .LVU59
	movq	_ZTVSt13__ios_failure@GOTPCREL(%rip), %rax
.LBE699:
	.loc 1 117 5 view .LVU60
	pushq	%rbx
	.cfi_def_cfa_offset 16
	.cfi_offset 3, -16
	.loc 1 117 5 view .LVU61
	movq	%rdi, %rbx
.LBB700:
	.loc 1 118 29 view .LVU62
	leaq	32(%rdi), %rdi
.LVL33:
	.loc 1 118 5 view .LVU63
	addq	$16, %rax
	movq	%rax, -32(%rdi)
	.loc 1 118 7 is_stmt 1 view .LVU64
	.loc 1 118 28 is_stmt 0 view .LVU65
	call	_ZSt21__destroy_ios_failurePv@PLT
.LVL34:
	.loc 1 118 5 view .LVU66
	movq	%rbx, %rdi
.LBE700:
	.loc 1 118 35 view .LVU67
	popq	%rbx
	.cfi_def_cfa_offset 8
.LVL35:
.LBB701:
	.loc 1 118 5 view .LVU68
	jmp	_ZNSt8ios_base7failureB5cxx11D2Ev@PLT
.LVL36:
	.loc 1 118 5 view .LVU69
.LBE701:
	.cfi_endproc
.LFE1437:
	.globl	__gxx_personality_v0
	.section	.gcc_except_table._ZNSt13__ios_failureD2Ev,"aG",@progbits,_ZNSt13__ios_failureD5Ev,comdat
.LLSDA1437:
	.byte	0xff
	.byte	0xff
	.byte	0x1
	.uleb128 .LLSDACSE1437-.LLSDACSB1437
.LLSDACSB1437:
.LLSDACSE1437:
	.section	.text._ZNSt13__ios_failureD2Ev,"axG",@progbits,_ZNSt13__ios_failureD5Ev,comdat
	.size	_ZNSt13__ios_failureD2Ev, .-_ZNSt13__ios_failureD2Ev
	.weak	_ZNSt13__ios_failureD1Ev
	.set	_ZNSt13__ios_failureD1Ev,_ZNSt13__ios_failureD2Ev
	.section	.text._ZNSt13__ios_failureD0Ev,"axG",@progbits,_ZNSt13__ios_failureD5Ev,comdat
	.align 2
	.p2align 4,,15
	.weak	_ZNSt13__ios_failureD0Ev
	.type	_ZNSt13__ios_failureD0Ev, @function
_ZNSt13__ios_failureD0Ev:
.LVL37:
.LFB1439:
	.loc 1 117 5 is_stmt 1 view -0
	.cfi_startproc
	.cfi_personality 0x9b,DW.ref.__gxx_personality_v0
	.cfi_lsda 0x1b,.LLSDA1439
.LBB702:
.LBI702:
	.loc 1 117 5 view .LVU71
.LBB703:
	.loc 1 118 5 is_stmt 0 view .LVU72
	movq	_ZTVSt13__ios_failure@GOTPCREL(%rip), %rax
.LBE703:
.LBE702:
	.loc 1 117 5 view .LVU73
	pushq	%rbx
	.cfi_def_cfa_offset 16
	.cfi_offset 3, -16
	.loc 1 117 5 view .LVU74
	movq	%rdi, %rbx
.LBB705:
.LBB704:
	.loc 1 118 29 view .LVU75
	leaq	32(%rdi), %rdi
.LVL38:
	.loc 1 118 5 view .LVU76
	addq	$16, %rax
	movq	%rax, -32(%rdi)
	.loc 1 118 7 is_stmt 1 view .LVU77
	.loc 1 118 28 is_stmt 0 view .LVU78
	call	_ZSt21__destroy_ios_failurePv@PLT
.LVL39:
	.loc 1 118 5 view .LVU79
	movq	%rbx, %rdi
	call	_ZNSt8ios_base7failureB5cxx11D2Ev@PLT
.LVL40:
	.loc 1 118 5 view .LVU80
.LBE704:
.LBE705:
	.loc 1 118 35 view .LVU81
	movq	%rbx, %rdi
	popq	%rbx
	.cfi_def_cfa_offset 8
.LVL41:
	.loc 1 118 35 view .LVU82
	jmp	_ZdlPv@PLT
.LVL42:
	.loc 1 118 35 view .LVU83
	.cfi_endproc
.LFE1439:
	.section	.gcc_except_table._ZNSt13__ios_failureD0Ev,"aG",@progbits,_ZNSt13__ios_failureD5Ev,comdat
.LLSDA1439:
	.byte	0xff
	.byte	0xff
	.byte	0x1
	.uleb128 .LLSDACSE1439-.LLSDACSB1439
.LLSDACSB1439:
.LLSDACSE1439:
	.section	.text._ZNSt13__ios_failureD0Ev,"axG",@progbits,_ZNSt13__ios_failureD5Ev,comdat
	.size	_ZNSt13__ios_failureD0Ev, .-_ZNSt13__ios_failureD0Ev
	.section	.rodata._ZNK12_GLOBAL__N_117io_error_category7messageB5cxx11Ei.str1.1,"aMS",@progbits,1
.LC1:
	.string	"iostream error"
.LC2:
	.string	"Unknown error"
	.section	.text.unlikely._ZNK12_GLOBAL__N_117io_error_category7messageB5cxx11Ei,"ax",@progbits
	.align 2
.LCOLDB3:
	.section	.text._ZNK12_GLOBAL__N_117io_error_category7messageB5cxx11Ei,"ax",@progbits
.LHOTB3:
	.align 2
	.p2align 4,,15
	.section	.text.unlikely._ZNK12_GLOBAL__N_117io_error_category7messageB5cxx11Ei
.Ltext_cold0:
	.section	.text._ZNK12_GLOBAL__N_117io_error_category7messageB5cxx11Ei
	.type	_ZNK12_GLOBAL__N_117io_error_category7messageB5cxx11Ei, @function
_ZNK12_GLOBAL__N_117io_error_category7messageB5cxx11Ei:
.LVL43:
.LFB1410:
	.loc 1 54 25 is_stmt 1 view -0
	.cfi_startproc
	.cfi_personality 0x9b,DW.ref.__gxx_personality_v0
	.cfi_lsda 0x1b,.LLSDA1410
	.loc 1 56 7 view .LVU85
.LBB780:
.LBI780:
	.file 2 "/mnt/lfs/sources/gcc-8.2.0/build/x86_64-pc-linux-gnu/libstdc++-v3/include/bits/basic_string.h"
	.loc 2 420 7 view .LVU86
.LBB781:
.LBI781:
	.file 3 "/mnt/lfs/sources/gcc-8.2.0/build/x86_64-pc-linux-gnu/libstdc++-v3/include/bits/allocator.h"
	.loc 3 131 7 view .LVU87
.LBB782:
.LBI782:
	.file 4 "/mnt/lfs/sources/gcc-8.2.0/build/x86_64-pc-linux-gnu/libstdc++-v3/include/ext/new_allocator.h"
	.loc 4 79 7 view .LVU88
	.loc 4 79 7 is_stmt 0 view .LVU89
.LBE782:
.LBE781:
.LBB783:
.LBI783:
	.loc 2 179 7 is_stmt 1 view .LVU90
.LBE783:
.LBE780:
	.loc 1 54 25 is_stmt 0 view .LVU91
	pushq	%r12
	.cfi_def_cfa_offset 16
	.cfi_offset 12, -16
	pushq	%rbp
	.cfi_def_cfa_offset 24
	.cfi_offset 6, -24
.LBB800:
.LBB785:
.LBB784:
	.loc 2 182 51 view .LVU92
	leaq	16(%rdi), %rbp
.LVL44:
	.loc 2 182 51 view .LVU93
.LBE784:
.LBE785:
.LBB786:
.LBI786:
	.loc 2 148 2 is_stmt 1 view .LVU94
.LBB787:
.LBB788:
.LBI788:
	.file 5 "/mnt/lfs/sources/gcc-8.2.0/build/x86_64-pc-linux-gnu/libstdc++-v3/include/bits/move.h"
	.loc 5 99 5 view .LVU95
	.loc 5 99 5 is_stmt 0 view .LVU96
.LBE788:
.LBB789:
.LBI789:
	.loc 3 133 7 is_stmt 1 view .LVU97
.LBB790:
.LBI790:
	.loc 4 81 7 view .LVU98
	.loc 4 81 7 is_stmt 0 view .LVU99
.LBE790:
.LBE789:
.LBE787:
.LBE786:
.LBE800:
	.loc 1 54 25 view .LVU100
	pushq	%rbx
	.cfi_def_cfa_offset 32
	.cfi_offset 3, -32
	.loc 1 54 25 view .LVU101
	movq	%rdi, %rbx
.LBB801:
.LBB792:
.LBB791:
	.loc 2 149 46 view .LVU102
	movq	%rbp, (%rdi)
.LVL45:
	.loc 2 149 46 view .LVU103
.LBE791:
.LBE792:
.LBB793:
.LBI793:
	.loc 3 139 7 is_stmt 1 view .LVU104
.LBB794:
.LBI794:
	.loc 4 86 7 view .LVU105
	.loc 4 86 7 is_stmt 0 view .LVU106
.LBE794:
.LBE793:
.LBB795:
.LBI795:
	.loc 2 203 7 is_stmt 1 view .LVU107
.LBB796:
.LBI796:
	.loc 2 171 7 view .LVU108
.LBB797:
	.loc 2 172 9 is_stmt 0 view .LVU109
	movq	$0, 8(%rdi)
.LVL46:
	.loc 2 172 9 view .LVU110
.LBE797:
.LBE796:
.LBB798:
.LBI798:
	.file 6 "/mnt/lfs/sources/gcc-8.2.0/build/x86_64-pc-linux-gnu/libstdc++-v3/include/bits/char_traits.h"
	.loc 6 284 7 is_stmt 1 view .LVU111
.LBB799:
	.loc 6 285 9 view .LVU112
	.loc 6 285 14 is_stmt 0 view .LVU113
	movb	$0, 16(%rdi)
.LVL47:
	.loc 6 285 14 view .LVU114
.LBE799:
.LBE798:
.LBE795:
.LBE801:
	.loc 1 57 7 is_stmt 1 view .LVU115
	cmpl	$1, %edx
	je	.L31
	.loc 1 62 7 view .LVU116
	.loc 1 63 11 view .LVU117
.LVL48:
.LBB802:
.LBI802:
	.loc 2 703 7 view .LVU118
.LBB803:
.LBI803:
	.loc 2 1426 7 view .LVU119
	.loc 2 1426 7 is_stmt 0 view .LVU120
.LBE803:
.LBE802:
	.loc 6 320 2 is_stmt 1 view .LVU121
.LBB806:
.LBB805:
.LBB804:
	.loc 2 1430 30 is_stmt 0 view .LVU122
	movl	$13, %r8d
	leaq	.LC2(%rip), %rcx
	xorl	%edx, %edx
.LVL49:
	.loc 2 1430 30 view .LVU123
	xorl	%esi, %esi
.LVL50:
.LEHB0:
	.loc 2 1430 30 view .LVU124
	call	_ZNSt7__cxx1112basic_stringIcSt11char_traitsIcESaIcEE10_M_replaceEmmPKcm@PLT
.LVL51:
	.loc 2 1430 30 view .LVU125
.LBE804:
.LBE805:
.LBE806:
	.loc 1 67 5 view .LVU126
	movq	%rbx, %rax
	popq	%rbx
	.cfi_remember_state
	.cfi_def_cfa_offset 24
.LVL52:
	.loc 1 67 5 view .LVU127
	popq	%rbp
	.cfi_def_cfa_offset 16
	popq	%r12
	.cfi_def_cfa_offset 8
	ret
.LVL53:
	.p2align 4,,10
	.p2align 3
.L31:
	.cfi_restore_state
	.loc 1 59 7 is_stmt 1 view .LVU128
	.loc 1 60 11 view .LVU129
.LBB807:
.LBI807:
	.loc 2 703 7 view .LVU130
.LBB808:
.LBI808:
	.loc 2 1426 7 view .LVU131
	.loc 2 1426 7 is_stmt 0 view .LVU132
.LBE808:
.LBE807:
	.loc 6 320 2 is_stmt 1 view .LVU133
.LBB811:
.LBB810:
.LBB809:
	.loc 2 1430 30 is_stmt 0 view .LVU134
	movl	$14, %r8d
	leaq	.LC1(%rip), %rcx
	xorl	%edx, %edx
.LVL54:
	.loc 2 1430 30 view .LVU135
	xorl	%esi, %esi
.LVL55:
	.loc 2 1430 30 view .LVU136
	call	_ZNSt7__cxx1112basic_stringIcSt11char_traitsIcESaIcEE10_M_replaceEmmPKcm@PLT
.LVL56:
.LEHE0:
.LBE809:
.LBE810:
.LBE811:
	.loc 1 67 5 view .LVU137
	movq	%rbx, %rax
	popq	%rbx
	.cfi_remember_state
	.cfi_def_cfa_offset 24
.LVL57:
	.loc 1 67 5 view .LVU138
	popq	%rbp
	.cfi_def_cfa_offset 16
	popq	%r12
	.cfi_def_cfa_offset 8
	ret
.LVL58:
.L29:
	.cfi_restore_state
	.loc 1 67 5 view .LVU139
	movq	%rax, %r12
	jmp	.L27
	.section	.gcc_except_table._ZNK12_GLOBAL__N_117io_error_category7messageB5cxx11Ei,"a",@progbits
.LLSDA1410:
	.byte	0xff
	.byte	0xff
	.byte	0x1
	.uleb128 .LLSDACSE1410-.LLSDACSB1410
.LLSDACSB1410:
	.uleb128 .LEHB0-.LFB1410
	.uleb128 .LEHE0-.LEHB0
	.uleb128 .L29-.LFB1410
	.uleb128 0
.LLSDACSE1410:
	.section	.text._ZNK12_GLOBAL__N_117io_error_category7messageB5cxx11Ei
	.cfi_endproc
	.section	.text.unlikely._ZNK12_GLOBAL__N_117io_error_category7messageB5cxx11Ei
	.cfi_startproc
	.cfi_personality 0x9b,DW.ref.__gxx_personality_v0
	.cfi_lsda 0x1b,.LLSDAC1410
	.type	_ZNK12_GLOBAL__N_117io_error_category7messageB5cxx11Ei.cold.24, @function
_ZNK12_GLOBAL__N_117io_error_category7messageB5cxx11Ei.cold.24:
.L27:
	.cfi_def_cfa_offset 32
	.cfi_offset 3, -32
	.cfi_offset 6, -24
	.cfi_offset 12, -16
.LVL59:
.LBB812:
.LBB813:
	.loc 2 218 7 is_stmt 1 view -0
.LBB814:
.LBB815:
.LBI815:
	.loc 2 210 7 view .LVU141
.LBB816:
	.loc 2 211 26 is_stmt 0 view .LVU142
	movq	(%rbx), %rdi
.LVL60:
	.loc 2 211 26 view .LVU143
.LBE816:
.LBE815:
	.loc 2 220 2 view .LVU144
	cmpq	%rdi, %rbp
	je	.L28
.LVL61:
.LBB817:
.LBI817:
	.loc 2 225 7 is_stmt 1 view .LVU145
.LBB818:
.LBI818:
	.file 7 "/mnt/lfs/sources/gcc-8.2.0/build/x86_64-pc-linux-gnu/libstdc++-v3/include/bits/alloc_traits.h"
	.loc 7 461 7 view .LVU146
.LBB819:
.LBI819:
	.loc 4 116 7 view .LVU147
.LBB820:
	.loc 4 125 19 is_stmt 0 view .LVU148
	call	_ZdlPv@PLT
.LVL62:
.L28:
	.loc 4 125 19 view .LVU149
.LBE820:
.LBE819:
.LBE818:
.LBE817:
.LBE814:
.LBE813:
.LBB821:
.LBI821:
	.loc 2 139 14 is_stmt 1 view .LVU150
.LBB822:
.LBI822:
	.loc 3 139 7 view .LVU151
.LBB823:
.LBI823:
	.loc 4 86 7 view .LVU152
	.loc 4 86 7 is_stmt 0 view .LVU153
	movq	%r12, %rdi
.LEHB1:
	call	_Unwind_Resume@PLT
.LVL63:
.LEHE1:
.LBE823:
.LBE822:
.LBE821:
.LBE812:
	.cfi_endproc
.LFE1410:
	.section	.gcc_except_table._ZNK12_GLOBAL__N_117io_error_category7messageB5cxx11Ei
.LLSDAC1410:
	.byte	0xff
	.byte	0xff
	.byte	0x1
	.uleb128 .LLSDACSEC1410-.LLSDACSBC1410
.LLSDACSBC1410:
	.uleb128 .LEHB1-.LCOLDB3
	.uleb128 .LEHE1-.LEHB1
	.uleb128 0
	.uleb128 0
.LLSDACSEC1410:
	.section	.text.unlikely._ZNK12_GLOBAL__N_117io_error_category7messageB5cxx11Ei
	.section	.text._ZNK12_GLOBAL__N_117io_error_category7messageB5cxx11Ei
	.size	_ZNK12_GLOBAL__N_117io_error_category7messageB5cxx11Ei, .-_ZNK12_GLOBAL__N_117io_error_category7messageB5cxx11Ei
	.section	.text.unlikely._ZNK12_GLOBAL__N_117io_error_category7messageB5cxx11Ei
	.size	_ZNK12_GLOBAL__N_117io_error_category7messageB5cxx11Ei.cold.24, .-_ZNK12_GLOBAL__N_117io_error_category7messageB5cxx11Ei.cold.24
.LCOLDE3:
	.section	.text._ZNK12_GLOBAL__N_117io_error_category7messageB5cxx11Ei
.LHOTE3:
	.section	.text._ZSt17iostream_categoryv,"ax",@progbits
	.p2align 4,,15
	.globl	_ZSt17iostream_categoryv
	.type	_ZSt17iostream_categoryv, @function
_ZSt17iostream_categoryv:
.LFB1418:
	.loc 1 85 3 is_stmt 1 view -0
	.cfi_startproc
	.loc 1 85 5 view .LVU155
.LBB826:
.LBI826:
	.loc 1 71 3 view .LVU156
.LBB827:
	.loc 1 73 5 view .LVU157
	.loc 1 73 41 is_stmt 0 view .LVU158
	movzbl	_ZGVZN12_GLOBAL__N_122__io_category_instanceEvE4__ec(%rip), %eax
	testb	%al, %al
	je	.L43
	.loc 1 74 5 is_stmt 1 view .LVU159
.LBE827:
.LBE826:
	.loc 1 85 38 is_stmt 0 view .LVU160
	leaq	_ZZN12_GLOBAL__N_122__io_category_instanceEvE4__ec(%rip), %rax
	ret
	.p2align 4,,10
	.p2align 3
.L43:
	.loc 1 85 3 view .LVU161
	subq	$8, %rsp
	.cfi_def_cfa_offset 16
.LBB830:
.LBB828:
	.loc 1 73 41 view .LVU162
	leaq	_ZGVZN12_GLOBAL__N_122__io_category_instanceEvE4__ec(%rip), %rdi
	call	__cxa_guard_acquire@PLT
.LVL64:
	testl	%eax, %eax
	jne	.L44
	.loc 1 74 5 is_stmt 1 view .LVU163
.LBE828:
.LBE830:
	.loc 1 85 38 is_stmt 0 view .LVU164
	leaq	_ZZN12_GLOBAL__N_122__io_category_instanceEvE4__ec(%rip), %rax
	addq	$8, %rsp
	.cfi_remember_state
	.cfi_def_cfa_offset 8
	ret
	.p2align 4,,10
	.p2align 3
.L44:
	.cfi_restore_state
.LBB831:
.LBB829:
	.loc 1 73 41 view .LVU165
	leaq	_ZGVZN12_GLOBAL__N_122__io_category_instanceEvE4__ec(%rip), %rdi
	call	__cxa_guard_release@PLT
.LVL65:
	leaq	__dso_handle(%rip), %rdx
	leaq	_ZZN12_GLOBAL__N_122__io_category_instanceEvE4__ec(%rip), %rsi
	leaq	_ZN12_GLOBAL__N_117io_error_categoryD1Ev(%rip), %rdi
	call	__cxa_atexit@PLT
.LVL66:
	.loc 1 74 5 is_stmt 1 view .LVU166
.LBE829:
.LBE831:
	.loc 1 85 38 is_stmt 0 view .LVU167
	leaq	_ZZN12_GLOBAL__N_122__io_category_instanceEvE4__ec(%rip), %rax
	addq	$8, %rsp
	.cfi_def_cfa_offset 8
	ret
	.cfi_endproc
.LFE1418:
	.size	_ZSt17iostream_categoryv, .-_ZSt17iostream_categoryv
	.section	.rodata._ZNSt8ios_base7failureB5cxx11C2ERKNSt7__cxx1112basic_stringIcSt11char_traitsIcESaIcEEE.str1.1,"aMS",@progbits,1
.LC4:
	.string	"basic_string::append"
.LC5:
	.string	": "
	.section	.text.unlikely._ZNSt8ios_base7failureB5cxx11C2ERKNSt7__cxx1112basic_stringIcSt11char_traitsIcESaIcEEE,"ax",@progbits
	.align 2
.LCOLDB6:
	.section	.text._ZNSt8ios_base7failureB5cxx11C2ERKNSt7__cxx1112basic_stringIcSt11char_traitsIcESaIcEEE,"ax",@progbits
.LHOTB6:
	.align 2
	.p2align 4,,15
	.globl	_ZNSt8ios_base7failureB5cxx11C2ERKNSt7__cxx1112basic_stringIcSt11char_traitsIcESaIcEEE
	.type	_ZNSt8ios_base7failureB5cxx11C2ERKNSt7__cxx1112basic_stringIcSt11char_traitsIcESaIcEEE, @function
_ZNSt8ios_base7failureB5cxx11C2ERKNSt7__cxx1112basic_stringIcSt11char_traitsIcESaIcEEE:
.LVL67:
.LFB1420:
	.loc 1 87 3 is_stmt 1 view -0
	.cfi_startproc
	.cfi_personality 0x9b,DW.ref.__gxx_personality_v0
	.cfi_lsda 0x1b,.LLSDA1420
.LBB1067:
.LBB1068:
.LBI1068:
	.file 8 "/mnt/lfs/sources/gcc-8.2.0/build/x86_64-pc-linux-gnu/libstdc++-v3/include/system_error"
	.loc 8 156 7 view .LVU169
.LBB1069:
.LBI1069:
	.file 9 "/mnt/lfs/sources/gcc-8.2.0/build/x86_64-pc-linux-gnu/libstdc++-v3/include/bits/ios_base.h"
	.loc 9 210 3 view .LVU170
.LBB1070:
	.loc 9 211 5 view .LVU171
.LBE1070:
.LBE1069:
.LBE1068:
.LBE1067:
	.loc 1 87 3 is_stmt 0 view .LVU172
	pushq	%r14
	.cfi_def_cfa_offset 16
	.cfi_offset 14, -16
	pushq	%r13
	.cfi_def_cfa_offset 24
	.cfi_offset 13, -24
	movq	%rdi, %r13
	pushq	%r12
	.cfi_def_cfa_offset 32
	.cfi_offset 12, -32
	movq	%rsi, %r12
	pushq	%rbp
	.cfi_def_cfa_offset 40
	.cfi_offset 6, -40
	pushq	%rbx
	.cfi_def_cfa_offset 48
	.cfi_offset 3, -48
	subq	$96, %rsp
	.cfi_def_cfa_offset 144
.LBB1372:
.LBB1076:
.LBB1074:
.LBB1072:
	.loc 9 211 12 view .LVU173
	call	_ZSt17iostream_categoryv@PLT
.LVL68:
	.loc 9 211 12 view .LVU174
	leaq	_ZNK12_GLOBAL__N_117io_error_category7messageB5cxx11Ei(%rip), %rdx
.LBE1072:
.LBE1074:
.LBE1076:
.LBB1077:
.LBB1078:
.LBB1079:
.LBB1080:
.LBB1081:
.LBB1082:
.LBB1083:
.LBB1084:
.LBB1085:
	.loc 2 149 46 view .LVU175
	leaq	32(%rsp), %rbp
.LBE1085:
.LBE1084:
.LBE1083:
.LBE1082:
.LBE1081:
.LBE1080:
.LBE1079:
.LBE1078:
.LBE1077:
.LBB1362:
.LBB1075:
.LBB1073:
	.loc 9 211 12 view .LVU176
	movq	%rax, %r14
.LVL69:
.LBB1071:
.LBI1071:
	.loc 8 151 5 is_stmt 1 view .LVU177
	.loc 8 151 5 is_stmt 0 view .LVU178
.LBE1071:
.LBE1073:
.LBE1075:
.LBE1362:
.LBB1363:
.LBI1077:
	.loc 8 350 5 is_stmt 1 view .LVU179
.LBB1353:
.LBB1137:
.LBI1079:
	.loc 8 188 5 view .LVU180
.LBB1131:
	.loc 8 189 7 view .LVU181
	.loc 8 189 7 is_stmt 0 view .LVU182
.LBE1131:
.LBE1137:
.LBE1353:
.LBE1363:
.LBE1372:
	.loc 8 181 33 is_stmt 1 view .LVU183
.LBB1373:
.LBB1364:
.LBB1354:
.LBB1138:
.LBB1132:
	.loc 8 189 40 is_stmt 0 view .LVU184
	movq	(%rax), %rax
.LVL70:
	.loc 8 189 40 view .LVU185
	movq	32(%rax), %rax
.LVL71:
	.loc 8 189 40 view .LVU186
.LBE1132:
.LBE1138:
.LBE1354:
.LBE1364:
.LBE1373:
	.loc 8 178 30 is_stmt 1 view .LVU187
	cmpq	%rdx, %rax
	jne	.L46
.LVL72:
.LBB1374:
.LBB1365:
.LBB1355:
.LBB1139:
.LBB1133:
.LBB1128:
.LBI1081:
	.loc 1 54 25 view .LVU188
.LBB1125:
	.loc 1 56 7 view .LVU189
.LBB1103:
.LBI1083:
	.loc 2 420 7 view .LVU190
.LBB1091:
.LBI1091:
	.loc 3 131 7 view .LVU191
.LBB1092:
.LBI1092:
	.loc 4 79 7 view .LVU192
	.loc 4 79 7 is_stmt 0 view .LVU193
.LBE1092:
.LBE1091:
.LBB1093:
.LBI1093:
	.loc 2 179 7 is_stmt 1 view .LVU194
	.loc 2 179 7 is_stmt 0 view .LVU195
.LBE1093:
.LBB1094:
.LBI1084:
	.loc 2 148 2 is_stmt 1 view .LVU196
.LBB1089:
.LBB1086:
.LBI1086:
	.loc 5 99 5 view .LVU197
	.loc 5 99 5 is_stmt 0 view .LVU198
.LBE1086:
.LBB1087:
.LBI1087:
	.loc 3 133 7 is_stmt 1 view .LVU199
.LBB1088:
.LBI1088:
	.loc 4 81 7 view .LVU200
	.loc 4 81 7 is_stmt 0 view .LVU201
.LBE1088:
.LBE1087:
	.loc 2 149 46 view .LVU202
	leaq	16(%rbp), %rax
.LBE1089:
.LBE1094:
.LBE1103:
.LBB1104:
.LBB1105:
.LBB1106:
	.loc 2 1430 30 view .LVU203
	movl	$14, %r8d
	xorl	%edx, %edx
	xorl	%esi, %esi
	leaq	.LC1(%rip), %rcx
	movq	%rbp, %rdi
.LBE1106:
.LBE1105:
.LBE1104:
.LBB1110:
.LBB1095:
.LBB1090:
	.loc 2 149 46 view .LVU204
	movq	%rax, 32(%rsp)
.LVL73:
	.loc 2 149 46 view .LVU205
.LBE1090:
.LBE1095:
.LBB1096:
.LBI1096:
	.loc 3 139 7 is_stmt 1 view .LVU206
.LBB1097:
.LBI1097:
	.loc 4 86 7 view .LVU207
	.loc 4 86 7 is_stmt 0 view .LVU208
.LBE1097:
.LBE1096:
.LBB1098:
.LBI1098:
	.loc 2 203 7 is_stmt 1 view .LVU209
.LBB1099:
.LBI1099:
	.loc 2 171 7 view .LVU210
.LBB1100:
	.loc 2 172 9 is_stmt 0 view .LVU211
	movq	$0, 40(%rsp)
.LVL74:
	.loc 2 172 9 view .LVU212
.LBE1100:
.LBE1099:
.LBB1101:
.LBI1101:
	.loc 6 284 7 is_stmt 1 view .LVU213
.LBB1102:
	.loc 6 285 9 view .LVU214
	.loc 6 285 14 is_stmt 0 view .LVU215
	movb	$0, 48(%rsp)
.LVL75:
	.loc 6 285 14 view .LVU216
.LBE1102:
.LBE1101:
.LBE1098:
.LBE1110:
	.loc 1 57 7 is_stmt 1 view .LVU217
	.loc 1 59 7 view .LVU218
	.loc 1 60 11 view .LVU219
.LBB1111:
.LBI1104:
	.loc 2 703 7 view .LVU220
.LBB1108:
.LBI1105:
	.loc 2 1426 7 view .LVU221
	.loc 2 1426 7 is_stmt 0 view .LVU222
.LBE1108:
.LBE1111:
.LBE1125:
.LBE1128:
.LBE1133:
.LBE1139:
.LBE1355:
.LBE1365:
.LBE1374:
	.loc 6 320 2 is_stmt 1 view .LVU223
.LEHB2:
.LBB1375:
.LBB1366:
.LBB1356:
.LBB1140:
.LBB1134:
.LBB1129:
.LBB1126:
.LBB1112:
.LBB1109:
.LBB1107:
	.loc 2 1430 30 is_stmt 0 view .LVU224
	call	_ZNSt7__cxx1112basic_stringIcSt11char_traitsIcESaIcEE10_M_replaceEmmPKcm@PLT
.LVL76:
.LEHE2:
.L47:
	.loc 2 1430 30 view .LVU225
.LBE1107:
.LBE1109:
.LBE1112:
.LBE1126:
.LBE1129:
.LBE1134:
.LBE1140:
.LBB1141:
.LBI1141:
	.loc 2 5955 5 is_stmt 1 view .LVU226
.LBB1142:
.LBB1143:
.LBI1143:
	.loc 2 437 7 view .LVU227
.LBB1144:
.LBB1145:
.LBI1145:
	.loc 2 279 7 view .LVU228
	.loc 2 279 7 is_stmt 0 view .LVU229
.LBE1145:
.LBB1146:
.LBI1146:
	.file 10 "/mnt/lfs/sources/gcc-8.2.0/build/x86_64-pc-linux-gnu/libstdc++-v3/include/ext/alloc_traits.h"
	.loc 10 94 19 is_stmt 1 view .LVU230
.LBB1147:
.LBI1147:
	.loc 7 504 7 view .LVU231
.LBB1148:
.LBI1148:
	.loc 3 133 7 view .LVU232
.LBB1149:
.LBI1149:
	.loc 4 81 7 view .LVU233
	.loc 4 81 7 is_stmt 0 view .LVU234
.LBE1149:
.LBE1148:
.LBE1147:
.LBE1146:
.LBB1150:
.LBI1150:
	.loc 2 179 7 is_stmt 1 view .LVU235
	.loc 2 179 7 is_stmt 0 view .LVU236
.LBE1150:
.LBB1151:
.LBI1151:
	.loc 2 148 2 is_stmt 1 view .LVU237
.LBB1152:
.LBB1153:
.LBI1153:
	.loc 5 99 5 view .LVU238
	.loc 5 99 5 is_stmt 0 view .LVU239
.LBE1153:
.LBB1154:
.LBI1154:
	.loc 3 133 7 is_stmt 1 view .LVU240
.LBB1155:
.LBI1155:
	.loc 4 81 7 view .LVU241
	.loc 4 81 7 is_stmt 0 view .LVU242
.LBE1155:
.LBE1154:
.LBE1152:
.LBE1151:
	.loc 2 440 55 view .LVU243
	movq	(%r12), %rsi
	.loc 2 440 9 view .LVU244
	movq	8(%r12), %rdx
.LBB1158:
.LBB1156:
	.loc 2 149 46 view .LVU245
	movq	%rsp, %rbx
	leaq	16(%rbx), %rax
.LBE1156:
.LBE1158:
.LBB1159:
.LBB1160:
.LBB1161:
.LBB1162:
	.loc 2 236 11 view .LVU246
	movq	%rbx, %rdi
.LBE1162:
.LBE1161:
.LBE1160:
.LBE1159:
	.loc 2 440 9 view .LVU247
	addq	%rsi, %rdx
.LBB1166:
.LBB1157:
	.loc 2 149 46 view .LVU248
	movq	%rax, (%rsp)
.LVL77:
	.loc 2 149 46 view .LVU249
.LBE1157:
.LBE1166:
.LBB1167:
.LBI1167:
	.loc 3 139 7 is_stmt 1 view .LVU250
.LBB1168:
.LBI1168:
	.loc 4 86 7 view .LVU251
	.loc 4 86 7 is_stmt 0 view .LVU252
.LBE1168:
.LBE1167:
.LBB1169:
.LBI1169:
	.loc 2 175 7 is_stmt 1 view .LVU253
	.loc 2 175 7 is_stmt 0 view .LVU254
.LBE1169:
.LBB1170:
.LBI1170:
	.loc 2 927 7 is_stmt 1 view .LVU255
	.loc 2 927 7 is_stmt 0 view .LVU256
.LBE1170:
.LBB1171:
.LBI1171:
	.loc 2 175 7 is_stmt 1 view .LVU257
	.loc 2 175 7 is_stmt 0 view .LVU258
.LBE1171:
.LBB1172:
.LBI1159:
	.loc 2 252 9 is_stmt 1 view .LVU259
.LBB1165:
.LBB1164:
.LBI1161:
	.loc 2 232 9 view .LVU260
.LEHB3:
.LBB1163:
	.loc 2 236 11 is_stmt 0 view .LVU261
	call	_ZNSt7__cxx1112basic_stringIcSt11char_traitsIcESaIcEE12_M_constructIPcEEvT_S7_St20forward_iterator_tag@PLT
.LVL78:
.LEHE3:
	.loc 2 236 11 view .LVU262
.LBE1163:
.LBE1164:
.LBE1165:
.LBE1172:
.LBE1144:
.LBE1143:
.LBB1173:
.LBI1173:
	.loc 2 1254 7 is_stmt 1 view .LVU263
	.loc 2 1254 7 is_stmt 0 view .LVU264
.LBE1173:
.LBE1142:
.LBE1141:
.LBE1356:
.LBE1366:
.LBE1375:
	.loc 6 320 2 is_stmt 1 view .LVU265
.LBB1376:
.LBB1367:
.LBB1357:
.LBB1201:
.LBB1198:
.LBB1183:
.LBB1174:
.LBB1175:
.LBI1175:
	.loc 2 309 7 view .LVU266
.LBB1176:
	.loc 2 311 2 is_stmt 0 view .LVU267
	movabsq	$9223372036854775807, %rax
	subq	8(%rsp), %rax
	cmpq	$1, %rax
	jbe	.L79
.LVL79:
	.loc 2 311 2 view .LVU268
.LBE1176:
.LBE1175:
	.loc 2 1259 27 view .LVU269
	movl	$2, %edx
	leaq	.LC5(%rip), %rsi
	movq	%rbx, %rdi
.LEHB4:
	call	_ZNSt7__cxx1112basic_stringIcSt11char_traitsIcESaIcEE9_M_appendEPKcm@PLT
.LVL80:
.LEHE4:
	.loc 2 1259 27 view .LVU270
.LBE1174:
.LBE1183:
.LBE1198:
.LBE1201:
.LBB1202:
.LBI1202:
	.loc 2 5995 5 is_stmt 1 view .LVU271
.LBB1203:
	.loc 2 5998 40 is_stmt 0 view .LVU272
	movq	8(%rsp), %r8
.LVL81:
	.loc 2 5998 40 view .LVU273
	movq	40(%rsp), %rdx
.LVL82:
.LBB1204:
.LBB1205:
	.loc 2 986 23 view .LVU274
	leaq	16(%rbx), %rsi
.LBB1206:
.LBB1207:
	.loc 2 211 26 view .LVU275
	movq	(%rsp), %rcx
.LBE1207:
.LBE1206:
	.loc 2 986 23 view .LVU276
	movq	16(%rsp), %rdi
.LBE1205:
.LBE1204:
	.loc 2 5998 18 view .LVU277
	leaq	(%r8,%rdx), %rax
.LVL83:
.LBB1213:
.LBI1204:
	.loc 2 984 7 is_stmt 1 view .LVU278
.LBB1211:
.LBB1210:
.LBI1206:
	.loc 2 210 7 view .LVU279
.LBB1209:
.LBB1208:
.LBI1208:
	.loc 2 189 7 view .LVU280
	.loc 2 189 7 is_stmt 0 view .LVU281
.LBE1208:
.LBE1209:
.LBE1210:
	.loc 2 986 23 view .LVU282
	cmpq	%rsi, %rcx
	je	.L80
.L51:
.LVL84:
	.loc 2 986 23 view .LVU283
	movq	32(%rsp), %rsi
.LBE1211:
.LBE1213:
	.loc 2 6000 7 view .LVU284
	cmpq	%rdi, %rax
	jbe	.L56
.LVL85:
.LBB1214:
.LBI1214:
	.loc 2 984 7 is_stmt 1 view .LVU285
.LBB1215:
.LBB1216:
.LBI1216:
	.loc 2 210 7 view .LVU286
.LBB1217:
.LBI1217:
	.loc 2 189 7 view .LVU287
	.loc 2 189 7 is_stmt 0 view .LVU288
.LBE1217:
.LBE1216:
	.loc 2 986 23 view .LVU289
	leaq	16(%rbp), %rdi
	cmpq	%rdi, %rsi
	je	.L70
	movq	48(%rsp), %rdi
.L57:
.LVL86:
	.loc 2 986 23 view .LVU290
.LBE1215:
.LBE1214:
	.loc 2 6000 7 view .LVU291
	cmpq	%rdi, %rax
	jbe	.L81
.LVL87:
.L56:
.LBB1219:
.LBI1219:
	.loc 2 1212 7 is_stmt 1 view .LVU292
.LBB1220:
	.loc 2 1213 55 is_stmt 0 view .LVU293
	movq	%rbx, %rdi
.LEHB5:
	call	_ZNSt7__cxx1112basic_stringIcSt11char_traitsIcESaIcEE9_M_appendEPKcm@PLT
.LVL88:
.LEHE5:
.L58:
	.loc 2 1213 55 view .LVU294
.LBE1220:
.LBE1219:
.LBB1221:
.LBI1221:
	.loc 2 541 7 is_stmt 1 view .LVU295
.LBB1222:
.LBB1223:
.LBI1223:
	.loc 2 275 7 view .LVU296
	.loc 2 275 7 is_stmt 0 view .LVU297
.LBE1223:
.LBB1224:
.LBI1224:
	.loc 5 99 5 is_stmt 1 view .LVU298
	.loc 5 99 5 is_stmt 0 view .LVU299
.LBE1224:
.LBB1225:
.LBI1225:
	.loc 2 179 7 is_stmt 1 view .LVU300
	.loc 2 179 7 is_stmt 0 view .LVU301
.LBE1225:
.LBB1226:
.LBI1226:
	.loc 2 148 2 is_stmt 1 view .LVU302
.LBB1227:
.LBB1228:
.LBI1228:
	.loc 5 99 5 view .LVU303
	.loc 5 99 5 is_stmt 0 view .LVU304
.LBE1228:
.LBB1229:
.LBI1229:
	.loc 3 133 7 is_stmt 1 view .LVU305
.LBB1230:
.LBI1230:
	.loc 4 81 7 view .LVU306
	.loc 4 81 7 is_stmt 0 view .LVU307
.LBE1230:
.LBE1229:
	.loc 2 149 46 view .LVU308
	leaq	64(%rsp), %r12
.LVL89:
	.loc 2 149 46 view .LVU309
	leaq	16(%r12), %rdx
	movq	%rdx, 64(%rsp)
.LVL90:
	.loc 2 149 46 view .LVU310
.LBE1227:
.LBE1226:
.LBB1231:
.LBI1231:
	.loc 2 210 7 is_stmt 1 view .LVU311
.LBB1232:
	.loc 2 211 26 is_stmt 0 view .LVU312
	movq	(%rax), %rcx
.LVL91:
.LBB1233:
.LBI1233:
	.loc 2 189 7 is_stmt 1 view .LVU313
.LBB1234:
	.loc 2 192 57 is_stmt 0 view .LVU314
	leaq	16(%rax), %rdx
.LVL92:
	.loc 2 192 57 view .LVU315
.LBE1234:
.LBE1233:
.LBE1232:
.LBE1231:
	.loc 2 544 2 view .LVU316
	cmpq	%rdx, %rcx
	je	.L82
.LBB1235:
.LBI1235:
	.loc 2 175 7 is_stmt 1 view .LVU317
.LVL93:
	.loc 2 175 7 is_stmt 0 view .LVU318
.LBE1235:
.LBB1236:
.LBI1236:
	.loc 2 167 7 is_stmt 1 view .LVU319
.LBB1237:
	.loc 2 168 9 is_stmt 0 view .LVU320
	movq	%rcx, 64(%rsp)
.LVL94:
	.loc 2 168 9 view .LVU321
.LBE1237:
.LBE1236:
	.loc 2 552 6 view .LVU322
	movq	16(%rax), %rcx
.LVL95:
.LBB1238:
.LBI1238:
	.loc 2 199 7 is_stmt 1 view .LVU323
.LBB1239:
	.loc 2 200 9 is_stmt 0 view .LVU324
	movq	%rcx, 80(%rsp)
.LVL96:
.L60:
	.loc 2 200 9 view .LVU325
.LBE1239:
.LBE1238:
	.loc 2 558 2 view .LVU326
	movq	8(%rax), %rcx
.LVL97:
.LBB1240:
.LBI1240:
	.loc 2 927 7 is_stmt 1 view .LVU327
	.loc 2 927 7 is_stmt 0 view .LVU328
.LBE1240:
.LBB1241:
.LBI1241:
	.loc 2 171 7 is_stmt 1 view .LVU329
	.loc 2 171 7 is_stmt 0 view .LVU330
.LBE1241:
.LBB1243:
.LBB1244:
.LBB1245:
	.loc 6 285 14 view .LVU331
	movb	$0, 16(%rax)
.LBE1245:
.LBE1244:
.LBE1243:
.LBE1222:
.LBE1221:
.LBE1203:
.LBE1202:
	.loc 8 351 66 view .LVU332
	movq	%r12, %rsi
	movq	%r13, %rdi
.LBB1268:
.LBB1265:
.LBB1258:
.LBB1256:
.LBB1250:
.LBB1242:
	.loc 2 172 9 view .LVU333
	movq	%rcx, 72(%rsp)
.LVL98:
	.loc 2 172 9 view .LVU334
.LBE1242:
.LBE1250:
.LBB1251:
.LBI1251:
	.loc 2 179 7 is_stmt 1 view .LVU335
	.loc 2 179 7 is_stmt 0 view .LVU336
.LBE1251:
.LBB1252:
.LBI1252:
	.loc 2 167 7 is_stmt 1 view .LVU337
.LBB1253:
	.loc 2 168 9 is_stmt 0 view .LVU338
	movq	%rdx, (%rax)
.LVL99:
	.loc 2 168 9 view .LVU339
.LBE1253:
.LBE1252:
.LBB1254:
.LBI1243:
	.loc 2 203 7 is_stmt 1 view .LVU340
.LBB1247:
.LBI1247:
	.loc 2 171 7 view .LVU341
.LBB1248:
	.loc 2 172 9 is_stmt 0 view .LVU342
	movq	$0, 8(%rax)
.LVL100:
	.loc 2 172 9 view .LVU343
.LBE1248:
.LBE1247:
.LBB1249:
.LBI1244:
	.loc 6 284 7 is_stmt 1 view .LVU344
.LBB1246:
	.loc 6 285 9 view .LVU345
.LEHB6:
	.loc 6 285 9 is_stmt 0 view .LVU346
.LBE1246:
.LBE1249:
.LBE1254:
.LBE1256:
.LBE1258:
.LBE1265:
.LBE1268:
	.loc 8 351 66 view .LVU347
	call	_ZNSt13runtime_errorC2ERKNSt7__cxx1112basic_stringIcSt11char_traitsIcESaIcEEE@PLT
.LVL101:
.LEHE6:
.LBB1269:
.LBI1269:
	.loc 2 656 7 is_stmt 1 view .LVU348
.LBB1270:
.LBI1270:
	.loc 2 218 7 view .LVU349
.LBB1271:
.LBB1272:
.LBI1272:
	.loc 2 210 7 view .LVU350
.LBB1273:
	.loc 2 211 26 is_stmt 0 view .LVU351
	movq	64(%rsp), %rdi
.LVL102:
.LBB1274:
.LBI1274:
	.loc 2 189 7 is_stmt 1 view .LVU352
	.loc 2 189 7 is_stmt 0 view .LVU353
.LBE1274:
.LBE1273:
.LBE1272:
	.loc 2 220 2 view .LVU354
	addq	$16, %r12
.LVL103:
	.loc 2 220 2 view .LVU355
	cmpq	%r12, %rdi
	je	.L61
.LVL104:
.LBB1275:
.LBI1275:
	.loc 2 225 7 is_stmt 1 view .LVU356
.LBB1276:
.LBI1276:
	.loc 7 461 7 view .LVU357
.LBB1277:
.LBI1277:
	.loc 4 116 7 view .LVU358
.LBB1278:
	.loc 4 125 19 is_stmt 0 view .LVU359
	call	_ZdlPv@PLT
.LVL105:
.L61:
	.loc 4 125 19 view .LVU360
.LBE1278:
.LBE1277:
.LBE1276:
.LBE1275:
.LBE1271:
.LBE1270:
.LBB1279:
.LBI1279:
	.loc 2 139 14 is_stmt 1 view .LVU361
.LBB1280:
.LBI1280:
	.loc 3 139 7 view .LVU362
.LBB1281:
.LBI1281:
	.loc 4 86 7 view .LVU363
	.loc 4 86 7 is_stmt 0 view .LVU364
.LBE1281:
.LBE1280:
.LBE1279:
.LBE1269:
.LBB1282:
.LBI1282:
	.loc 2 656 7 is_stmt 1 view .LVU365
.LBB1283:
.LBI1283:
	.loc 2 218 7 view .LVU366
.LBB1284:
.LBB1285:
.LBI1285:
	.loc 2 210 7 view .LVU367
.LBB1286:
	.loc 2 211 26 is_stmt 0 view .LVU368
	movq	(%rsp), %rdi
.LVL106:
.LBB1287:
.LBI1287:
	.loc 2 189 7 is_stmt 1 view .LVU369
	.loc 2 189 7 is_stmt 0 view .LVU370
.LBE1287:
.LBE1286:
.LBE1285:
	.loc 2 220 2 view .LVU371
	addq	$16, %rbx
.LVL107:
	.loc 2 220 2 view .LVU372
	cmpq	%rbx, %rdi
	je	.L62
.LVL108:
.LBB1288:
.LBI1288:
	.loc 2 225 7 is_stmt 1 view .LVU373
.LBB1289:
.LBI1289:
	.loc 7 461 7 view .LVU374
.LBB1290:
.LBI1290:
	.loc 4 116 7 view .LVU375
.LBB1291:
	.loc 4 125 19 is_stmt 0 view .LVU376
	call	_ZdlPv@PLT
.LVL109:
.L62:
	.loc 4 125 19 view .LVU377
.LBE1291:
.LBE1290:
.LBE1289:
.LBE1288:
.LBE1284:
.LBE1283:
.LBB1292:
.LBI1292:
	.loc 2 139 14 is_stmt 1 view .LVU378
.LBB1293:
.LBI1293:
	.loc 3 139 7 view .LVU379
.LBB1294:
.LBI1294:
	.loc 4 86 7 view .LVU380
	.loc 4 86 7 is_stmt 0 view .LVU381
.LBE1294:
.LBE1293:
.LBE1292:
.LBE1282:
.LBB1295:
.LBI1295:
	.loc 2 656 7 is_stmt 1 view .LVU382
.LBB1296:
.LBI1296:
	.loc 2 218 7 view .LVU383
.LBB1297:
.LBB1298:
.LBI1298:
	.loc 2 210 7 view .LVU384
.LBB1299:
	.loc 2 211 26 is_stmt 0 view .LVU385
	movq	32(%rsp), %rdi
.LVL110:
.LBB1300:
.LBI1300:
	.loc 2 189 7 is_stmt 1 view .LVU386
	.loc 2 189 7 is_stmt 0 view .LVU387
.LBE1300:
.LBE1299:
.LBE1298:
	.loc 2 220 2 view .LVU388
	addq	$16, %rbp
.LVL111:
	.loc 2 220 2 view .LVU389
	cmpq	%rbp, %rdi
	je	.L63
.LVL112:
.LBB1301:
.LBI1301:
	.loc 2 225 7 is_stmt 1 view .LVU390
.LBB1302:
.LBI1302:
	.loc 7 461 7 view .LVU391
.LBB1303:
.LBI1303:
	.loc 4 116 7 view .LVU392
.LBB1304:
	.loc 4 125 19 is_stmt 0 view .LVU393
	call	_ZdlPv@PLT
.LVL113:
.L63:
	.loc 4 125 19 view .LVU394
.LBE1304:
.LBE1303:
.LBE1302:
.LBE1301:
.LBE1297:
.LBE1296:
.LBB1305:
.LBI1305:
	.loc 2 139 14 is_stmt 1 view .LVU395
.LBB1306:
.LBI1306:
	.loc 3 139 7 view .LVU396
.LBB1307:
.LBI1307:
	.loc 4 86 7 view .LVU397
	.loc 4 86 7 is_stmt 0 view .LVU398
.LBE1307:
.LBE1306:
.LBE1305:
.LBE1295:
.LBE1357:
.LBE1367:
	.loc 1 88 40 view .LVU399
	movq	_ZTVNSt8ios_base7failureB5cxx11E@GOTPCREL(%rip), %rax
.LBB1368:
.LBB1358:
	.loc 8 351 66 view .LVU400
	movl	$1, 16(%r13)
	movq	%r14, 24(%r13)
.LVL114:
	.loc 8 351 66 view .LVU401
.LBE1358:
.LBE1368:
	.loc 1 88 40 view .LVU402
	addq	$16, %rax
	movq	%rax, 0(%r13)
.LBE1376:
	.loc 1 88 44 view .LVU403
	addq	$96, %rsp
	.cfi_remember_state
	.cfi_def_cfa_offset 48
.LVL115:
	.loc 1 88 44 view .LVU404
	popq	%rbx
	.cfi_def_cfa_offset 40
.LVL116:
	.loc 1 88 44 view .LVU405
	popq	%rbp
	.cfi_def_cfa_offset 32
.LVL117:
	.loc 1 88 44 view .LVU406
	popq	%r12
	.cfi_def_cfa_offset 24
.LVL118:
	.loc 1 88 44 view .LVU407
	popq	%r13
	.cfi_def_cfa_offset 16
.LVL119:
	.loc 1 88 44 view .LVU408
	popq	%r14
	.cfi_def_cfa_offset 8
	ret
.LVL120:
	.p2align 4,,10
	.p2align 3
.L81:
	.cfi_restore_state
.LBB1377:
.LBB1369:
.LBB1359:
.LBB1308:
.LBB1266:
.LBB1259:
.LBI1259:
	.loc 2 1622 7 is_stmt 1 view .LVU409
.LBB1260:
.LBI1260:
	.loc 2 1918 7 view .LVU410
.LBB1261:
	.loc 2 1923 38 is_stmt 0 view .LVU411
	xorl	%edx, %edx
.LVL121:
	.loc 2 1923 38 view .LVU412
	xorl	%esi, %esi
	movq	%rbp, %rdi
.LEHB7:
	call	_ZNSt7__cxx1112basic_stringIcSt11char_traitsIcESaIcEE10_M_replaceEmmPKcm@PLT
.LVL122:
.LEHE7:
	.loc 2 1923 38 view .LVU413
	jmp	.L58
.LVL123:
	.p2align 4,,10
	.p2align 3
.L82:
	.loc 2 1923 38 view .LVU414
.LBE1261:
.LBE1260:
.LBE1259:
.LBB1262:
.LBB1257:
.LBB1255:
.LBI1255:
	.loc 6 346 7 is_stmt 1 view .LVU415
.LBE1255:
.LBE1257:
.LBE1262:
.LBE1266:
.LBE1308:
.LBE1359:
.LBE1369:
.LBE1377:
	.loc 6 348 2 view .LVU416
	.loc 6 350 2 view .LVU417
	movdqu	16(%rax), %xmm0
	movaps	%xmm0, 80(%rsp)
	jmp	.L60
.LVL124:
	.p2align 4,,10
	.p2align 3
.L46:
.LBB1378:
.LBB1370:
.LBB1360:
.LBB1309:
.LBB1135:
	.loc 8 189 40 is_stmt 0 view .LVU418
	movl	$1, %edx
	movq	%r14, %rsi
	movq	%rbp, %rdi
.LEHB8:
	call	*%rax
.LVL125:
.LEHE8:
	jmp	.L47
.LVL126:
	.p2align 4,,10
	.p2align 3
.L80:
	.loc 8 189 40 view .LVU419
.LBE1135:
.LBE1309:
.LBB1310:
.LBB1267:
.LBB1263:
.LBB1212:
	.loc 2 986 23 view .LVU420
	movl	$15, %edi
	jmp	.L51
.LVL127:
	.p2align 4,,10
	.p2align 3
.L70:
	.loc 2 986 23 view .LVU421
.LBE1212:
.LBE1263:
.LBB1264:
.LBB1218:
	movl	$15, %edi
	jmp	.L57
.LVL128:
.L79:
	.loc 2 986 23 view .LVU422
.LBE1218:
.LBE1264:
.LBE1267:
.LBE1310:
.LBB1311:
.LBB1199:
.LBB1184:
.LBB1181:
.LBB1179:
.LBB1177:
	.loc 2 312 24 view .LVU423
	leaq	.LC4(%rip), %rdi
.LEHB9:
	call	_ZSt20__throw_length_errorPKc@PLT
.LVL129:
.LEHE9:
.L75:
	.loc 2 312 24 view .LVU424
	movq	%rax, %r12
.LVL130:
	.loc 2 312 24 view .LVU425
	jmp	.L53
.LVL131:
.L72:
	.loc 2 312 24 view .LVU426
	movq	%rax, %r12
.LVL132:
	.loc 2 312 24 view .LVU427
	jmp	.L66
.LVL133:
.L71:
	.loc 2 312 24 view .LVU428
	movq	%rax, %r12
.LVL134:
	.loc 2 312 24 view .LVU429
	jmp	.L55
.LVL135:
.L73:
	.loc 2 312 24 view .LVU430
	movq	%rax, %r13
.LVL136:
	.loc 2 312 24 view .LVU431
	jmp	.L64
.LVL137:
.L74:
	.loc 2 312 24 view .LVU432
	movq	%rax, %rbx
	jmp	.L48
.LVL138:
	.loc 2 312 24 view .LVU433
.LBE1177:
.LBE1179:
.LBE1181:
.LBE1184:
.LBE1199:
.LBE1311:
.LBE1360:
.LBE1370:
.LBE1378:
	.section	.gcc_except_table._ZNSt8ios_base7failureB5cxx11C2ERKNSt7__cxx1112basic_stringIcSt11char_traitsIcESaIcEEE,"a",@progbits
.LLSDA1420:
	.byte	0xff
	.byte	0xff
	.byte	0x1
	.uleb128 .LLSDACSE1420-.LLSDACSB1420
.LLSDACSB1420:
	.uleb128 .LEHB2-.LFB1420
	.uleb128 .LEHE2-.LEHB2
	.uleb128 .L74-.LFB1420
	.uleb128 0
	.uleb128 .LEHB3-.LFB1420
	.uleb128 .LEHE3-.LEHB3
	.uleb128 .L71-.LFB1420
	.uleb128 0
	.uleb128 .LEHB4-.LFB1420
	.uleb128 .LEHE4-.LEHB4
	.uleb128 .L75-.LFB1420
	.uleb128 0
	.uleb128 .LEHB5-.LFB1420
	.uleb128 .LEHE5-.LEHB5
	.uleb128 .L72-.LFB1420
	.uleb128 0
	.uleb128 .LEHB6-.LFB1420
	.uleb128 .LEHE6-.LEHB6
	.uleb128 .L73-.LFB1420
	.uleb128 0
	.uleb128 .LEHB7-.LFB1420
	.uleb128 .LEHE7-.LEHB7
	.uleb128 .L72-.LFB1420
	.uleb128 0
	.uleb128 .LEHB8-.LFB1420
	.uleb128 .LEHE8-.LEHB8
	.uleb128 0
	.uleb128 0
	.uleb128 .LEHB9-.LFB1420
	.uleb128 .LEHE9-.LEHB9
	.uleb128 .L75-.LFB1420
	.uleb128 0
.LLSDACSE1420:
	.section	.text._ZNSt8ios_base7failureB5cxx11C2ERKNSt7__cxx1112basic_stringIcSt11char_traitsIcESaIcEEE
	.cfi_endproc
	.section	.text.unlikely._ZNSt8ios_base7failureB5cxx11C2ERKNSt7__cxx1112basic_stringIcSt11char_traitsIcESaIcEEE
	.cfi_startproc
	.cfi_personality 0x9b,DW.ref.__gxx_personality_v0
	.cfi_lsda 0x1b,.LLSDAC1420
	.type	_ZNSt8ios_base7failureB5cxx11C2ERKNSt7__cxx1112basic_stringIcSt11char_traitsIcESaIcEEE.cold.25, @function
_ZNSt8ios_base7failureB5cxx11C2ERKNSt7__cxx1112basic_stringIcSt11char_traitsIcESaIcEEE.cold.25:
.LBB1379:
.LBB1371:
.LBB1361:
.LBB1312:
.LBB1200:
.LBB1185:
.LBB1182:
.LBB1180:
.LBB1178:
.L53:
	.cfi_def_cfa_offset 144
	.cfi_offset 3, -48
	.cfi_offset 6, -40
	.cfi_offset 12, -32
	.cfi_offset 13, -24
	.cfi_offset 14, -16
.LVL139:
	.loc 2 312 24 view -0
.LBE1178:
.LBE1180:
.LBE1182:
.LBE1185:
.LBB1186:
.LBB1187:
.LBI1187:
	.loc 2 218 7 is_stmt 1 view .LVU435
.LBB1188:
.LBB1189:
.LBI1189:
	.loc 2 210 7 view .LVU436
.LBB1190:
	.loc 2 211 26 is_stmt 0 view .LVU437
	movq	(%rsp), %rdi
.LVL140:
	.loc 2 211 26 view .LVU438
.LBE1190:
.LBE1189:
	.loc 2 220 2 view .LVU439
	addq	$16, %rbx
.LVL141:
	.loc 2 220 2 view .LVU440
	cmpq	%rbx, %rdi
	je	.L55
.LVL142:
.LBB1191:
.LBI1191:
	.loc 2 225 7 is_stmt 1 view .LVU441
.LBB1192:
.LBI1192:
	.loc 7 461 7 view .LVU442
.LBB1193:
.LBI1193:
	.loc 4 116 7 view .LVU443
.LBB1194:
	.loc 4 125 19 is_stmt 0 view .LVU444
	call	_ZdlPv@PLT
.LVL143:
	.loc 4 125 19 view .LVU445
.LBE1194:
.LBE1193:
.LBE1192:
.LBE1191:
.LBE1188:
.LBE1187:
.LBB1195:
.LBI1195:
	.loc 2 139 14 is_stmt 1 view .LVU446
.LBB1196:
.LBI1196:
	.loc 3 139 7 view .LVU447
.LBB1197:
.LBI1197:
	.loc 4 86 7 view .LVU448
.L55:
	.loc 4 86 7 is_stmt 0 view .LVU449
.LBE1197:
.LBE1196:
.LBE1195:
.LBE1186:
.LBE1200:
.LBE1312:
.LBB1313:
.LBI1313:
	.loc 2 656 7 is_stmt 1 view .LVU450
.LBB1314:
.LBI1314:
	.loc 2 218 7 view .LVU451
.LBB1315:
.LBB1316:
.LBI1316:
	.loc 2 210 7 view .LVU452
.LBB1317:
	.loc 2 211 26 is_stmt 0 view .LVU453
	movq	32(%rsp), %rdi
.LVL144:
.LBB1318:
.LBI1318:
	.loc 2 189 7 is_stmt 1 view .LVU454
	.loc 2 189 7 is_stmt 0 view .LVU455
.LBE1318:
.LBE1317:
.LBE1316:
	.loc 2 220 2 view .LVU456
	addq	$16, %rbp
.LVL145:
	.loc 2 220 2 view .LVU457
	cmpq	%rbp, %rdi
	je	.L68
.LVL146:
.LBB1319:
.LBI1319:
	.loc 2 225 7 is_stmt 1 view .LVU458
.LBB1320:
.LBI1320:
	.loc 7 461 7 view .LVU459
.LBB1321:
.LBI1321:
	.loc 4 116 7 view .LVU460
.LBB1322:
	.loc 4 125 19 is_stmt 0 view .LVU461
	call	_ZdlPv@PLT
.LVL147:
.L68:
	.loc 4 125 19 view .LVU462
.LBE1322:
.LBE1321:
.LBE1320:
.LBE1319:
.LBE1315:
.LBE1314:
.LBB1323:
.LBI1323:
	.loc 2 139 14 is_stmt 1 view .LVU463
.LBB1324:
.LBI1324:
	.loc 3 139 7 view .LVU464
.LBB1325:
.LBI1325:
	.loc 4 86 7 view .LVU465
	.loc 4 86 7 is_stmt 0 view .LVU466
	movq	%r12, %rdi
.LEHB10:
	call	_Unwind_Resume@PLT
.LVL148:
.L64:
	.loc 4 86 7 view .LVU467
.LBE1325:
.LBE1324:
.LBE1323:
.LBE1313:
.LBB1326:
.LBI1326:
	.loc 2 656 7 is_stmt 1 view .LVU468
.LBB1327:
.LBI1327:
	.loc 2 218 7 view .LVU469
.LBB1328:
.LBB1329:
.LBI1329:
	.loc 2 210 7 view .LVU470
.LBB1330:
	.loc 2 211 26 is_stmt 0 view .LVU471
	movq	64(%rsp), %rdi
.LVL149:
.LBB1331:
.LBI1331:
	.loc 2 189 7 is_stmt 1 view .LVU472
	.loc 2 189 7 is_stmt 0 view .LVU473
.LBE1331:
.LBE1330:
.LBE1329:
	.loc 2 220 2 view .LVU474
	addq	$16, %r12
.LVL150:
	.loc 2 220 2 view .LVU475
	cmpq	%r12, %rdi
	je	.L65
.LVL151:
.LBB1332:
.LBI1332:
	.loc 2 225 7 is_stmt 1 view .LVU476
.LBB1333:
.LBI1333:
	.loc 7 461 7 view .LVU477
.LBB1334:
.LBI1334:
	.loc 4 116 7 view .LVU478
.LBB1335:
	.loc 4 125 19 is_stmt 0 view .LVU479
	call	_ZdlPv@PLT
.LVL152:
.L65:
	.loc 4 125 19 view .LVU480
.LBE1335:
.LBE1334:
.LBE1333:
.LBE1332:
.LBE1328:
.LBE1327:
.LBB1336:
.LBI1336:
	.loc 2 139 14 is_stmt 1 view .LVU481
.LBB1337:
.LBI1337:
	.loc 3 139 7 view .LVU482
.LBB1338:
.LBI1338:
	.loc 4 86 7 view .LVU483
	.loc 4 86 7 is_stmt 0 view .LVU484
	movq	%r13, %r12
.LVL153:
.L66:
	.loc 4 86 7 view .LVU485
.LBE1338:
.LBE1337:
.LBE1336:
.LBE1326:
.LBB1339:
.LBI1339:
	.loc 2 656 7 is_stmt 1 view .LVU486
.LBB1340:
.LBI1340:
	.loc 2 218 7 view .LVU487
.LBB1341:
.LBB1342:
.LBI1342:
	.loc 2 210 7 view .LVU488
.LBB1343:
	.loc 2 211 26 is_stmt 0 view .LVU489
	movq	(%rsp), %rdi
.LVL154:
.LBB1344:
.LBI1344:
	.loc 2 189 7 is_stmt 1 view .LVU490
	.loc 2 189 7 is_stmt 0 view .LVU491
.LBE1344:
.LBE1343:
.LBE1342:
	.loc 2 220 2 view .LVU492
	addq	$16, %rbx
.LVL155:
	.loc 2 220 2 view .LVU493
	cmpq	%rbx, %rdi
	je	.L55
.LVL156:
.LBB1345:
.LBI1345:
	.loc 2 225 7 is_stmt 1 view .LVU494
.LBB1346:
.LBI1346:
	.loc 7 461 7 view .LVU495
.LBB1347:
.LBI1347:
	.loc 4 116 7 view .LVU496
.LBB1348:
	.loc 4 125 19 is_stmt 0 view .LVU497
	call	_ZdlPv@PLT
.LVL157:
	.loc 4 125 19 view .LVU498
.LBE1348:
.LBE1347:
.LBE1346:
.LBE1345:
.LBE1341:
.LBE1340:
.LBB1349:
.LBI1349:
	.loc 2 139 14 is_stmt 1 view .LVU499
.LBB1350:
.LBI1350:
	.loc 3 139 7 view .LVU500
.LBB1351:
.LBI1351:
	.loc 4 86 7 view .LVU501
	.loc 4 86 7 is_stmt 0 view .LVU502
	jmp	.L55
.LVL158:
.L48:
	.loc 4 86 7 view .LVU503
.LBE1351:
.LBE1350:
.LBE1349:
.LBE1339:
.LBB1352:
.LBB1136:
.LBB1130:
.LBB1127:
.LBB1113:
.LBB1114:
.LBI1114:
	.loc 2 218 7 is_stmt 1 view .LVU504
.LBB1115:
.LBB1116:
.LBI1116:
	.loc 2 210 7 view .LVU505
.LBB1117:
	.loc 2 211 26 is_stmt 0 view .LVU506
	movq	32(%rsp), %rdi
.LVL159:
	.loc 2 211 26 view .LVU507
.LBE1117:
.LBE1116:
	.loc 2 220 2 view .LVU508
	addq	$16, %rbp
.LVL160:
	.loc 2 220 2 view .LVU509
	cmpq	%rbp, %rdi
	je	.L49
.LVL161:
.LBB1118:
.LBI1118:
	.loc 2 225 7 is_stmt 1 view .LVU510
.LBB1119:
.LBI1119:
	.loc 7 461 7 view .LVU511
.LBB1120:
.LBI1120:
	.loc 4 116 7 view .LVU512
.LBB1121:
	.loc 4 125 19 is_stmt 0 view .LVU513
	call	_ZdlPv@PLT
.LVL162:
.L49:
	.loc 4 125 19 view .LVU514
.LBE1121:
.LBE1120:
.LBE1119:
.LBE1118:
.LBE1115:
.LBE1114:
.LBB1122:
.LBI1122:
	.loc 2 139 14 is_stmt 1 view .LVU515
.LBB1123:
.LBI1123:
	.loc 3 139 7 view .LVU516
.LBB1124:
.LBI1124:
	.loc 4 86 7 view .LVU517
	.loc 4 86 7 is_stmt 0 view .LVU518
	movq	%rbx, %rdi
	call	_Unwind_Resume@PLT
.LVL163:
.LEHE10:
.LBE1124:
.LBE1123:
.LBE1122:
.LBE1113:
.LBE1127:
.LBE1130:
.LBE1136:
.LBE1352:
.LBE1361:
.LBE1371:
.LBE1379:
	.cfi_endproc
.LFE1420:
	.section	.gcc_except_table._ZNSt8ios_base7failureB5cxx11C2ERKNSt7__cxx1112basic_stringIcSt11char_traitsIcESaIcEEE
.LLSDAC1420:
	.byte	0xff
	.byte	0xff
	.byte	0x1
	.uleb128 .LLSDACSEC1420-.LLSDACSBC1420
.LLSDACSBC1420:
	.uleb128 .LEHB10-.LCOLDB6
	.uleb128 .LEHE10-.LEHB10
	.uleb128 0
	.uleb128 0
.LLSDACSEC1420:
	.section	.text.unlikely._ZNSt8ios_base7failureB5cxx11C2ERKNSt7__cxx1112basic_stringIcSt11char_traitsIcESaIcEEE
	.section	.text._ZNSt8ios_base7failureB5cxx11C2ERKNSt7__cxx1112basic_stringIcSt11char_traitsIcESaIcEEE
	.size	_ZNSt8ios_base7failureB5cxx11C2ERKNSt7__cxx1112basic_stringIcSt11char_traitsIcESaIcEEE, .-_ZNSt8ios_base7failureB5cxx11C2ERKNSt7__cxx1112basic_stringIcSt11char_traitsIcESaIcEEE
	.section	.text.unlikely._ZNSt8ios_base7failureB5cxx11C2ERKNSt7__cxx1112basic_stringIcSt11char_traitsIcESaIcEEE
	.size	_ZNSt8ios_base7failureB5cxx11C2ERKNSt7__cxx1112basic_stringIcSt11char_traitsIcESaIcEEE.cold.25, .-_ZNSt8ios_base7failureB5cxx11C2ERKNSt7__cxx1112basic_stringIcSt11char_traitsIcESaIcEEE.cold.25
.LCOLDE6:
	.section	.text._ZNSt8ios_base7failureB5cxx11C2ERKNSt7__cxx1112basic_stringIcSt11char_traitsIcESaIcEEE
.LHOTE6:
	.globl	_ZNSt8ios_base7failureB5cxx11C1ERKNSt7__cxx1112basic_stringIcSt11char_traitsIcESaIcEEE
	.set	_ZNSt8ios_base7failureB5cxx11C1ERKNSt7__cxx1112basic_stringIcSt11char_traitsIcESaIcEEE,_ZNSt8ios_base7failureB5cxx11C2ERKNSt7__cxx1112basic_stringIcSt11char_traitsIcESaIcEEE
	.section	.text.unlikely._ZNSt8ios_base7failureB5cxx11C2ERKNSt7__cxx1112basic_stringIcSt11char_traitsIcESaIcEEERKSt10error_code,"ax",@progbits
	.align 2
.LCOLDB7:
	.section	.text._ZNSt8ios_base7failureB5cxx11C2ERKNSt7__cxx1112basic_stringIcSt11char_traitsIcESaIcEEERKSt10error_code,"ax",@progbits
.LHOTB7:
	.align 2
	.p2align 4,,15
	.globl	_ZNSt8ios_base7failureB5cxx11C2ERKNSt7__cxx1112basic_stringIcSt11char_traitsIcESaIcEEERKSt10error_code
	.type	_ZNSt8ios_base7failureB5cxx11C2ERKNSt7__cxx1112basic_stringIcSt11char_traitsIcESaIcEEERKSt10error_code, @function
_ZNSt8ios_base7failureB5cxx11C2ERKNSt7__cxx1112basic_stringIcSt11char_traitsIcESaIcEEERKSt10error_code:
.LVL164:
.LFB1423:
	.loc 1 90 3 is_stmt 1 view -0
	.cfi_startproc
	.cfi_personality 0x9b,DW.ref.__gxx_personality_v0
	.cfi_lsda 0x1b,.LLSDA1423
	.loc 1 90 3 is_stmt 0 view .LVU520
	pushq	%r15
	.cfi_def_cfa_offset 16
	.cfi_offset 15, -16
	pushq	%r14
	.cfi_def_cfa_offset 24
	.cfi_offset 14, -24
	pushq	%r13
	.cfi_def_cfa_offset 32
	.cfi_offset 13, -32
	movq	%rdi, %r13
.LVL165:
	.loc 1 90 3 view .LVU521
	pushq	%r12
	.cfi_def_cfa_offset 40
	.cfi_offset 12, -40
	movq	%rsi, %r12
	pushq	%rbp
	.cfi_def_cfa_offset 48
	.cfi_offset 6, -48
	pushq	%rbx
	.cfi_def_cfa_offset 56
	.cfi_offset 3, -56
	subq	$104, %rsp
	.cfi_def_cfa_offset 160
	movq	8(%rdx), %r14
	movl	(%rdx), %r15d
.LVL166:
.LBB1609:
.LBB1610:
.LBI1610:
	.loc 8 350 5 is_stmt 1 view .LVU522
.LBB1611:
.LBB1612:
.LBI1612:
	.loc 8 188 5 view .LVU523
.LBB1613:
	.loc 8 189 7 view .LVU524
	.loc 8 189 7 is_stmt 0 view .LVU525
.LBE1613:
.LBE1612:
.LBE1611:
.LBE1610:
.LBE1609:
	.loc 8 181 33 is_stmt 1 view .LVU526
	leaq	_ZNK12_GLOBAL__N_117io_error_category7messageB5cxx11Ei(%rip), %rdx
.LVL167:
.LBB1912:
.LBB1903:
.LBB1894:
.LBB1678:
.LBB1672:
.LBB1614:
.LBB1615:
.LBB1616:
.LBB1617:
.LBB1618:
	.loc 2 149 46 is_stmt 0 view .LVU527
	leaq	32(%rsp), %rbp
.LBE1618:
.LBE1617:
.LBE1616:
.LBE1615:
.LBE1614:
	.loc 8 189 40 view .LVU528
	movq	(%r14), %rax
	movq	32(%rax), %rax
.LVL168:
	.loc 8 189 40 view .LVU529
.LBE1672:
.LBE1678:
.LBE1894:
.LBE1903:
.LBE1912:
	.loc 8 178 30 is_stmt 1 view .LVU530
	cmpq	%rdx, %rax
	jne	.L84
.LVL169:
.LBB1913:
.LBB1904:
.LBB1895:
.LBB1679:
.LBB1673:
.LBB1667:
.LBI1614:
	.loc 1 54 25 view .LVU531
.LBB1662:
	.loc 1 56 7 view .LVU532
.LBB1639:
.LBI1616:
	.loc 2 420 7 view .LVU533
.LBB1624:
.LBI1624:
	.loc 3 131 7 view .LVU534
.LBB1625:
.LBI1625:
	.loc 4 79 7 view .LVU535
	.loc 4 79 7 is_stmt 0 view .LVU536
.LBE1625:
.LBE1624:
.LBB1626:
.LBI1626:
	.loc 2 179 7 is_stmt 1 view .LVU537
	.loc 2 179 7 is_stmt 0 view .LVU538
.LBE1626:
.LBB1627:
.LBI1617:
	.loc 2 148 2 is_stmt 1 view .LVU539
.LBB1622:
.LBB1619:
.LBI1619:
	.loc 5 99 5 view .LVU540
	.loc 5 99 5 is_stmt 0 view .LVU541
.LBE1619:
.LBB1620:
.LBI1620:
	.loc 3 133 7 is_stmt 1 view .LVU542
.LBB1621:
.LBI1621:
	.loc 4 81 7 view .LVU543
	.loc 4 81 7 is_stmt 0 view .LVU544
.LBE1621:
.LBE1620:
	.loc 2 149 46 view .LVU545
	leaq	16(%rbp), %rax
.LBE1622:
.LBE1627:
.LBB1628:
.LBB1629:
.LBB1630:
	.loc 6 285 14 view .LVU546
	movb	$0, 48(%rsp)
.LBE1630:
.LBE1629:
.LBE1628:
.LBB1635:
.LBB1623:
	.loc 2 149 46 view .LVU547
	movq	%rax, 32(%rsp)
.LVL170:
	.loc 2 149 46 view .LVU548
.LBE1623:
.LBE1635:
.LBB1636:
.LBI1636:
	.loc 3 139 7 is_stmt 1 view .LVU549
.LBB1637:
.LBI1637:
	.loc 4 86 7 view .LVU550
	.loc 4 86 7 is_stmt 0 view .LVU551
.LBE1637:
.LBE1636:
.LBB1638:
.LBI1628:
	.loc 2 203 7 is_stmt 1 view .LVU552
.LBB1632:
.LBI1632:
	.loc 2 171 7 view .LVU553
.LBB1633:
	.loc 2 172 9 is_stmt 0 view .LVU554
	movq	$0, 40(%rsp)
.LVL171:
	.loc 2 172 9 view .LVU555
.LBE1633:
.LBE1632:
.LBB1634:
.LBI1629:
	.loc 6 284 7 is_stmt 1 view .LVU556
.LBB1631:
	.loc 6 285 9 view .LVU557
	.loc 6 285 9 is_stmt 0 view .LVU558
.LBE1631:
.LBE1634:
.LBE1638:
.LBE1639:
	.loc 1 57 7 is_stmt 1 view .LVU559
	cmpl	$1, %r15d
	je	.L119
	.loc 1 62 7 view .LVU560
	.loc 1 63 11 view .LVU561
.LVL172:
.LBB1640:
.LBI1640:
	.loc 2 703 7 view .LVU562
.LBB1641:
.LBI1641:
	.loc 2 1426 7 view .LVU563
	.loc 2 1426 7 is_stmt 0 view .LVU564
.LBE1641:
.LBE1640:
.LBE1662:
.LBE1667:
.LBE1673:
.LBE1679:
.LBE1895:
.LBE1904:
.LBE1913:
	.loc 6 320 2 is_stmt 1 view .LVU565
.LBB1914:
.LBB1905:
.LBB1896:
.LBB1680:
.LBB1674:
.LBB1668:
.LBB1663:
.LBB1644:
.LBB1643:
.LBB1642:
	.loc 2 1430 30 is_stmt 0 view .LVU566
	movl	$13, %r8d
	xorl	%edx, %edx
	xorl	%esi, %esi
.LVL173:
	.loc 2 1430 30 view .LVU567
	movq	%rbp, %rdi
.LVL174:
	.loc 2 1430 30 view .LVU568
	leaq	.LC2(%rip), %rcx
.LEHB11:
	call	_ZNSt7__cxx1112basic_stringIcSt11char_traitsIcESaIcEE10_M_replaceEmmPKcm@PLT
.LVL175:
.LEHE11:
.L86:
	.loc 2 1430 30 view .LVU569
.LBE1642:
.LBE1643:
.LBE1644:
.LBE1663:
.LBE1668:
.LBE1674:
.LBE1680:
.LBB1681:
.LBI1681:
	.loc 2 5955 5 is_stmt 1 view .LVU570
.LBB1682:
.LBB1683:
.LBI1683:
	.loc 2 437 7 view .LVU571
.LBB1684:
.LBB1685:
.LBI1685:
	.loc 2 279 7 view .LVU572
	.loc 2 279 7 is_stmt 0 view .LVU573
.LBE1685:
.LBB1686:
.LBI1686:
	.loc 10 94 19 is_stmt 1 view .LVU574
.LBB1687:
.LBI1687:
	.loc 7 504 7 view .LVU575
.LBB1688:
.LBI1688:
	.loc 3 133 7 view .LVU576
.LBB1689:
.LBI1689:
	.loc 4 81 7 view .LVU577
	.loc 4 81 7 is_stmt 0 view .LVU578
.LBE1689:
.LBE1688:
.LBE1687:
.LBE1686:
.LBB1690:
.LBI1690:
	.loc 2 179 7 is_stmt 1 view .LVU579
	.loc 2 179 7 is_stmt 0 view .LVU580
.LBE1690:
.LBB1691:
.LBI1691:
	.loc 2 148 2 is_stmt 1 view .LVU581
.LBB1692:
.LBB1693:
.LBI1693:
	.loc 5 99 5 view .LVU582
	.loc 5 99 5 is_stmt 0 view .LVU583
.LBE1693:
.LBB1694:
.LBI1694:
	.loc 3 133 7 is_stmt 1 view .LVU584
.LBB1695:
.LBI1695:
	.loc 4 81 7 view .LVU585
	.loc 4 81 7 is_stmt 0 view .LVU586
.LBE1695:
.LBE1694:
.LBE1692:
.LBE1691:
	.loc 2 440 55 view .LVU587
	movq	(%r12), %rsi
	.loc 2 440 9 view .LVU588
	movq	8(%r12), %rdx
.LBB1698:
.LBB1696:
	.loc 2 149 46 view .LVU589
	movq	%rsp, %rbx
	leaq	16(%rbx), %rax
.LBE1696:
.LBE1698:
.LBB1699:
.LBB1700:
.LBB1701:
.LBB1702:
	.loc 2 236 11 view .LVU590
	movq	%rbx, %rdi
.LBE1702:
.LBE1701:
.LBE1700:
.LBE1699:
	.loc 2 440 9 view .LVU591
	addq	%rsi, %rdx
.LBB1706:
.LBB1697:
	.loc 2 149 46 view .LVU592
	movq	%rax, (%rsp)
.LVL176:
	.loc 2 149 46 view .LVU593
.LBE1697:
.LBE1706:
.LBB1707:
.LBI1707:
	.loc 3 139 7 is_stmt 1 view .LVU594
.LBB1708:
.LBI1708:
	.loc 4 86 7 view .LVU595
	.loc 4 86 7 is_stmt 0 view .LVU596
.LBE1708:
.LBE1707:
.LBB1709:
.LBI1709:
	.loc 2 175 7 is_stmt 1 view .LVU597
	.loc 2 175 7 is_stmt 0 view .LVU598
.LBE1709:
.LBB1710:
.LBI1710:
	.loc 2 927 7 is_stmt 1 view .LVU599
	.loc 2 927 7 is_stmt 0 view .LVU600
.LBE1710:
.LBB1711:
.LBI1711:
	.loc 2 175 7 is_stmt 1 view .LVU601
	.loc 2 175 7 is_stmt 0 view .LVU602
.LBE1711:
.LBB1712:
.LBI1699:
	.loc 2 252 9 is_stmt 1 view .LVU603
.LBB1705:
.LBB1704:
.LBI1701:
	.loc 2 232 9 view .LVU604
.LEHB12:
.LBB1703:
	.loc 2 236 11 is_stmt 0 view .LVU605
	call	_ZNSt7__cxx1112basic_stringIcSt11char_traitsIcESaIcEE12_M_constructIPcEEvT_S7_St20forward_iterator_tag@PLT
.LVL177:
.LEHE12:
	.loc 2 236 11 view .LVU606
.LBE1703:
.LBE1704:
.LBE1705:
.LBE1712:
.LBE1684:
.LBE1683:
.LBB1713:
.LBI1713:
	.loc 2 1254 7 is_stmt 1 view .LVU607
	.loc 2 1254 7 is_stmt 0 view .LVU608
.LBE1713:
.LBE1682:
.LBE1681:
.LBE1896:
.LBE1905:
.LBE1914:
	.loc 6 320 2 is_stmt 1 view .LVU609
.LBB1915:
.LBB1906:
.LBB1897:
.LBB1741:
.LBB1738:
.LBB1723:
.LBB1714:
.LBB1715:
.LBI1715:
	.loc 2 309 7 view .LVU610
.LBB1716:
	.loc 2 311 2 is_stmt 0 view .LVU611
	movabsq	$9223372036854775807, %rax
	subq	8(%rsp), %rax
	cmpq	$1, %rax
	jbe	.L120
.LVL178:
	.loc 2 311 2 view .LVU612
.LBE1716:
.LBE1715:
	.loc 2 1259 27 view .LVU613
	movl	$2, %edx
	leaq	.LC5(%rip), %rsi
	movq	%rbx, %rdi
.LEHB13:
	call	_ZNSt7__cxx1112basic_stringIcSt11char_traitsIcESaIcEE9_M_appendEPKcm@PLT
.LVL179:
.LEHE13:
	.loc 2 1259 27 view .LVU614
.LBE1714:
.LBE1723:
.LBE1738:
.LBE1741:
.LBB1742:
.LBI1742:
	.loc 2 5995 5 is_stmt 1 view .LVU615
.LBB1743:
	.loc 2 5998 40 is_stmt 0 view .LVU616
	movq	8(%rsp), %r8
.LVL180:
	.loc 2 5998 40 view .LVU617
	movq	40(%rsp), %rdx
.LVL181:
.LBB1744:
.LBB1745:
	.loc 2 986 23 view .LVU618
	leaq	16(%rbx), %rsi
.LBB1746:
.LBB1747:
	.loc 2 211 26 view .LVU619
	movq	(%rsp), %rcx
.LBE1747:
.LBE1746:
	.loc 2 986 23 view .LVU620
	movq	16(%rsp), %rdi
.LBE1745:
.LBE1744:
	.loc 2 5998 18 view .LVU621
	leaq	(%r8,%rdx), %rax
.LVL182:
.LBB1753:
.LBI1744:
	.loc 2 984 7 is_stmt 1 view .LVU622
.LBB1751:
.LBB1750:
.LBI1746:
	.loc 2 210 7 view .LVU623
.LBB1749:
.LBB1748:
.LBI1748:
	.loc 2 189 7 view .LVU624
	.loc 2 189 7 is_stmt 0 view .LVU625
.LBE1748:
.LBE1749:
.LBE1750:
	.loc 2 986 23 view .LVU626
	cmpq	%rsi, %rcx
	je	.L121
.L91:
.LVL183:
	.loc 2 986 23 view .LVU627
	movq	32(%rsp), %rsi
.LBE1751:
.LBE1753:
	.loc 2 6000 7 view .LVU628
	cmpq	%rdi, %rax
	jbe	.L96
.LVL184:
.LBB1754:
.LBI1754:
	.loc 2 984 7 is_stmt 1 view .LVU629
.LBB1755:
.LBB1756:
.LBI1756:
	.loc 2 210 7 view .LVU630
.LBB1757:
.LBI1757:
	.loc 2 189 7 view .LVU631
	.loc 2 189 7 is_stmt 0 view .LVU632
.LBE1757:
.LBE1756:
	.loc 2 986 23 view .LVU633
	leaq	16(%rbp), %rdi
	cmpq	%rdi, %rsi
	je	.L110
	movq	48(%rsp), %rdi
.L97:
.LVL185:
	.loc 2 986 23 view .LVU634
.LBE1755:
.LBE1754:
	.loc 2 6000 7 view .LVU635
	cmpq	%rdi, %rax
	jbe	.L122
.LVL186:
.L96:
.LBB1759:
.LBI1759:
	.loc 2 1212 7 is_stmt 1 view .LVU636
.LBB1760:
	.loc 2 1213 55 is_stmt 0 view .LVU637
	movq	%rbx, %rdi
.LEHB14:
	call	_ZNSt7__cxx1112basic_stringIcSt11char_traitsIcESaIcEE9_M_appendEPKcm@PLT
.LVL187:
.LEHE14:
.L98:
	.loc 2 1213 55 view .LVU638
.LBE1760:
.LBE1759:
.LBB1761:
.LBI1761:
	.loc 2 541 7 is_stmt 1 view .LVU639
.LBB1762:
.LBB1763:
.LBI1763:
	.loc 2 275 7 view .LVU640
	.loc 2 275 7 is_stmt 0 view .LVU641
.LBE1763:
.LBB1764:
.LBI1764:
	.loc 5 99 5 is_stmt 1 view .LVU642
	.loc 5 99 5 is_stmt 0 view .LVU643
.LBE1764:
.LBB1765:
.LBI1765:
	.loc 2 179 7 is_stmt 1 view .LVU644
	.loc 2 179 7 is_stmt 0 view .LVU645
.LBE1765:
.LBB1766:
.LBI1766:
	.loc 2 148 2 is_stmt 1 view .LVU646
.LBB1767:
.LBB1768:
.LBI1768:
	.loc 5 99 5 view .LVU647
	.loc 5 99 5 is_stmt 0 view .LVU648
.LBE1768:
.LBB1769:
.LBI1769:
	.loc 3 133 7 is_stmt 1 view .LVU649
.LBB1770:
.LBI1770:
	.loc 4 81 7 view .LVU650
	.loc 4 81 7 is_stmt 0 view .LVU651
.LBE1770:
.LBE1769:
	.loc 2 149 46 view .LVU652
	leaq	64(%rsp), %r12
.LVL188:
	.loc 2 149 46 view .LVU653
	leaq	16(%r12), %rdx
	movq	%rdx, 64(%rsp)
.LVL189:
	.loc 2 149 46 view .LVU654
.LBE1767:
.LBE1766:
.LBB1771:
.LBI1771:
	.loc 2 210 7 is_stmt 1 view .LVU655
.LBB1772:
	.loc 2 211 26 is_stmt 0 view .LVU656
	movq	(%rax), %rcx
.LVL190:
.LBB1773:
.LBI1773:
	.loc 2 189 7 is_stmt 1 view .LVU657
.LBB1774:
	.loc 2 192 57 is_stmt 0 view .LVU658
	leaq	16(%rax), %rdx
.LVL191:
	.loc 2 192 57 view .LVU659
.LBE1774:
.LBE1773:
.LBE1772:
.LBE1771:
	.loc 2 544 2 view .LVU660
	cmpq	%rdx, %rcx
	je	.L123
.LBB1775:
.LBI1775:
	.loc 2 175 7 is_stmt 1 view .LVU661
.LVL192:
	.loc 2 175 7 is_stmt 0 view .LVU662
.LBE1775:
.LBB1776:
.LBI1776:
	.loc 2 167 7 is_stmt 1 view .LVU663
.LBB1777:
	.loc 2 168 9 is_stmt 0 view .LVU664
	movq	%rcx, 64(%rsp)
.LVL193:
	.loc 2 168 9 view .LVU665
.LBE1777:
.LBE1776:
	.loc 2 552 6 view .LVU666
	movq	16(%rax), %rcx
.LVL194:
.LBB1778:
.LBI1778:
	.loc 2 199 7 is_stmt 1 view .LVU667
.LBB1779:
	.loc 2 200 9 is_stmt 0 view .LVU668
	movq	%rcx, 80(%rsp)
.LVL195:
.L100:
	.loc 2 200 9 view .LVU669
.LBE1779:
.LBE1778:
	.loc 2 558 2 view .LVU670
	movq	8(%rax), %rcx
.LVL196:
.LBB1780:
.LBI1780:
	.loc 2 927 7 is_stmt 1 view .LVU671
	.loc 2 927 7 is_stmt 0 view .LVU672
.LBE1780:
.LBB1781:
.LBI1781:
	.loc 2 171 7 is_stmt 1 view .LVU673
	.loc 2 171 7 is_stmt 0 view .LVU674
.LBE1781:
.LBB1783:
.LBB1784:
.LBB1785:
	.loc 6 285 14 view .LVU675
	movb	$0, 16(%rax)
.LBE1785:
.LBE1784:
.LBE1783:
.LBE1762:
.LBE1761:
.LBE1743:
.LBE1742:
	.loc 8 351 66 view .LVU676
	movq	%r12, %rsi
	movq	%r13, %rdi
.LBB1808:
.LBB1805:
.LBB1798:
.LBB1796:
.LBB1790:
.LBB1782:
	.loc 2 172 9 view .LVU677
	movq	%rcx, 72(%rsp)
.LVL197:
	.loc 2 172 9 view .LVU678
.LBE1782:
.LBE1790:
.LBB1791:
.LBI1791:
	.loc 2 179 7 is_stmt 1 view .LVU679
	.loc 2 179 7 is_stmt 0 view .LVU680
.LBE1791:
.LBB1792:
.LBI1792:
	.loc 2 167 7 is_stmt 1 view .LVU681
.LBB1793:
	.loc 2 168 9 is_stmt 0 view .LVU682
	movq	%rdx, (%rax)
.LVL198:
	.loc 2 168 9 view .LVU683
.LBE1793:
.LBE1792:
.LBB1794:
.LBI1783:
	.loc 2 203 7 is_stmt 1 view .LVU684
.LBB1787:
.LBI1787:
	.loc 2 171 7 view .LVU685
.LBB1788:
	.loc 2 172 9 is_stmt 0 view .LVU686
	movq	$0, 8(%rax)
.LVL199:
	.loc 2 172 9 view .LVU687
.LBE1788:
.LBE1787:
.LBB1789:
.LBI1784:
	.loc 6 284 7 is_stmt 1 view .LVU688
.LBB1786:
	.loc 6 285 9 view .LVU689
.LEHB15:
	.loc 6 285 9 is_stmt 0 view .LVU690
.LBE1786:
.LBE1789:
.LBE1794:
.LBE1796:
.LBE1798:
.LBE1805:
.LBE1808:
	.loc 8 351 66 view .LVU691
	call	_ZNSt13runtime_errorC2ERKNSt7__cxx1112basic_stringIcSt11char_traitsIcESaIcEEE@PLT
.LVL200:
.LEHE15:
.LBB1809:
.LBI1809:
	.loc 2 656 7 is_stmt 1 view .LVU692
.LBB1810:
.LBI1810:
	.loc 2 218 7 view .LVU693
.LBB1811:
.LBB1812:
.LBI1812:
	.loc 2 210 7 view .LVU694
.LBB1813:
	.loc 2 211 26 is_stmt 0 view .LVU695
	movq	64(%rsp), %rdi
.LVL201:
.LBB1814:
.LBI1814:
	.loc 2 189 7 is_stmt 1 view .LVU696
	.loc 2 189 7 is_stmt 0 view .LVU697
.LBE1814:
.LBE1813:
.LBE1812:
	.loc 2 220 2 view .LVU698
	addq	$16, %r12
.LVL202:
	.loc 2 220 2 view .LVU699
	cmpq	%r12, %rdi
	je	.L101
.LVL203:
.LBB1815:
.LBI1815:
	.loc 2 225 7 is_stmt 1 view .LVU700
.LBB1816:
.LBI1816:
	.loc 7 461 7 view .LVU701
.LBB1817:
.LBI1817:
	.loc 4 116 7 view .LVU702
.LBB1818:
	.loc 4 125 19 is_stmt 0 view .LVU703
	call	_ZdlPv@PLT
.LVL204:
.L101:
	.loc 4 125 19 view .LVU704
.LBE1818:
.LBE1817:
.LBE1816:
.LBE1815:
.LBE1811:
.LBE1810:
.LBB1819:
.LBI1819:
	.loc 2 139 14 is_stmt 1 view .LVU705
.LBB1820:
.LBI1820:
	.loc 3 139 7 view .LVU706
.LBB1821:
.LBI1821:
	.loc 4 86 7 view .LVU707
	.loc 4 86 7 is_stmt 0 view .LVU708
.LBE1821:
.LBE1820:
.LBE1819:
.LBE1809:
.LBB1822:
.LBI1822:
	.loc 2 656 7 is_stmt 1 view .LVU709
.LBB1823:
.LBI1823:
	.loc 2 218 7 view .LVU710
.LBB1824:
.LBB1825:
.LBI1825:
	.loc 2 210 7 view .LVU711
.LBB1826:
	.loc 2 211 26 is_stmt 0 view .LVU712
	movq	(%rsp), %rdi
.LVL205:
.LBB1827:
.LBI1827:
	.loc 2 189 7 is_stmt 1 view .LVU713
	.loc 2 189 7 is_stmt 0 view .LVU714
.LBE1827:
.LBE1826:
.LBE1825:
	.loc 2 220 2 view .LVU715
	addq	$16, %rbx
.LVL206:
	.loc 2 220 2 view .LVU716
	cmpq	%rbx, %rdi
	je	.L102
.LVL207:
.LBB1828:
.LBI1828:
	.loc 2 225 7 is_stmt 1 view .LVU717
.LBB1829:
.LBI1829:
	.loc 7 461 7 view .LVU718
.LBB1830:
.LBI1830:
	.loc 4 116 7 view .LVU719
.LBB1831:
	.loc 4 125 19 is_stmt 0 view .LVU720
	call	_ZdlPv@PLT
.LVL208:
.L102:
	.loc 4 125 19 view .LVU721
.LBE1831:
.LBE1830:
.LBE1829:
.LBE1828:
.LBE1824:
.LBE1823:
.LBB1832:
.LBI1832:
	.loc 2 139 14 is_stmt 1 view .LVU722
.LBB1833:
.LBI1833:
	.loc 3 139 7 view .LVU723
.LBB1834:
.LBI1834:
	.loc 4 86 7 view .LVU724
	.loc 4 86 7 is_stmt 0 view .LVU725
.LBE1834:
.LBE1833:
.LBE1832:
.LBE1822:
.LBB1835:
.LBI1835:
	.loc 2 656 7 is_stmt 1 view .LVU726
.LBB1836:
.LBI1836:
	.loc 2 218 7 view .LVU727
.LBB1837:
.LBB1838:
.LBI1838:
	.loc 2 210 7 view .LVU728
.LBB1839:
	.loc 2 211 26 is_stmt 0 view .LVU729
	movq	32(%rsp), %rdi
.LVL209:
.LBB1840:
.LBI1840:
	.loc 2 189 7 is_stmt 1 view .LVU730
	.loc 2 189 7 is_stmt 0 view .LVU731
.LBE1840:
.LBE1839:
.LBE1838:
	.loc 2 220 2 view .LVU732
	addq	$16, %rbp
.LVL210:
	.loc 2 220 2 view .LVU733
	cmpq	%rbp, %rdi
	je	.L103
.LVL211:
.LBB1841:
.LBI1841:
	.loc 2 225 7 is_stmt 1 view .LVU734
.LBB1842:
.LBI1842:
	.loc 7 461 7 view .LVU735
.LBB1843:
.LBI1843:
	.loc 4 116 7 view .LVU736
.LBB1844:
	.loc 4 125 19 is_stmt 0 view .LVU737
	call	_ZdlPv@PLT
.LVL212:
.L103:
	.loc 4 125 19 view .LVU738
.LBE1844:
.LBE1843:
.LBE1842:
.LBE1841:
.LBE1837:
.LBE1836:
.LBB1845:
.LBI1845:
	.loc 2 139 14 is_stmt 1 view .LVU739
.LBB1846:
.LBI1846:
	.loc 3 139 7 view .LVU740
.LBB1847:
.LBI1847:
	.loc 4 86 7 view .LVU741
	.loc 4 86 7 is_stmt 0 view .LVU742
.LBE1847:
.LBE1846:
.LBE1845:
.LBE1835:
.LBE1897:
.LBE1906:
	.loc 1 91 29 view .LVU743
	movq	_ZTVNSt8ios_base7failureB5cxx11E@GOTPCREL(%rip), %rax
.LBB1907:
.LBB1898:
	.loc 8 351 66 view .LVU744
	movl	%r15d, 16(%r13)
	movq	%r14, 24(%r13)
.LVL213:
	.loc 8 351 66 view .LVU745
.LBE1898:
.LBE1907:
	.loc 1 91 29 view .LVU746
	addq	$16, %rax
	movq	%rax, 0(%r13)
.LBE1915:
	.loc 1 91 33 view .LVU747
	addq	$104, %rsp
	.cfi_remember_state
	.cfi_def_cfa_offset 56
.LVL214:
	.loc 1 91 33 view .LVU748
	popq	%rbx
	.cfi_def_cfa_offset 48
.LVL215:
	.loc 1 91 33 view .LVU749
	popq	%rbp
	.cfi_def_cfa_offset 40
.LVL216:
	.loc 1 91 33 view .LVU750
	popq	%r12
	.cfi_def_cfa_offset 32
.LVL217:
	.loc 1 91 33 view .LVU751
	popq	%r13
	.cfi_def_cfa_offset 24
.LVL218:
	.loc 1 91 33 view .LVU752
	popq	%r14
	.cfi_def_cfa_offset 16
	popq	%r15
	.cfi_def_cfa_offset 8
	ret
.LVL219:
	.p2align 4,,10
	.p2align 3
.L122:
	.cfi_restore_state
.LBB1916:
.LBB1908:
.LBB1899:
.LBB1848:
.LBB1806:
.LBB1799:
.LBI1799:
	.loc 2 1622 7 is_stmt 1 view .LVU753
.LBB1800:
.LBI1800:
	.loc 2 1918 7 view .LVU754
.LBB1801:
	.loc 2 1923 38 is_stmt 0 view .LVU755
	xorl	%edx, %edx
.LVL220:
	.loc 2 1923 38 view .LVU756
	xorl	%esi, %esi
	movq	%rbp, %rdi
.LEHB16:
	call	_ZNSt7__cxx1112basic_stringIcSt11char_traitsIcESaIcEE10_M_replaceEmmPKcm@PLT
.LVL221:
.LEHE16:
	.loc 2 1923 38 view .LVU757
	jmp	.L98
.LVL222:
	.p2align 4,,10
	.p2align 3
.L123:
	.loc 2 1923 38 view .LVU758
.LBE1801:
.LBE1800:
.LBE1799:
.LBB1802:
.LBB1797:
.LBB1795:
.LBI1795:
	.loc 6 346 7 is_stmt 1 view .LVU759
.LBE1795:
.LBE1797:
.LBE1802:
.LBE1806:
.LBE1848:
.LBE1899:
.LBE1908:
.LBE1916:
	.loc 6 348 2 view .LVU760
	.loc 6 350 2 view .LVU761
	movdqu	16(%rax), %xmm0
	movaps	%xmm0, 80(%rsp)
	jmp	.L100
.LVL223:
	.p2align 4,,10
	.p2align 3
.L119:
.LBB1917:
.LBB1909:
.LBB1900:
.LBB1849:
.LBB1675:
.LBB1669:
.LBB1664:
	.loc 1 59 7 view .LVU762
	.loc 1 60 11 view .LVU763
.LBB1645:
.LBI1645:
	.loc 2 703 7 view .LVU764
.LBB1646:
.LBI1646:
	.loc 2 1426 7 view .LVU765
	.loc 2 1426 7 is_stmt 0 view .LVU766
.LBE1646:
.LBE1645:
.LBE1664:
.LBE1669:
.LBE1675:
.LBE1849:
.LBE1900:
.LBE1909:
.LBE1917:
	.loc 6 320 2 is_stmt 1 view .LVU767
.LBB1918:
.LBB1910:
.LBB1901:
.LBB1850:
.LBB1676:
.LBB1670:
.LBB1665:
.LBB1649:
.LBB1648:
.LBB1647:
	.loc 2 1430 30 is_stmt 0 view .LVU768
	movl	$14, %r8d
	xorl	%edx, %edx
	xorl	%esi, %esi
.LVL224:
	.loc 2 1430 30 view .LVU769
	movq	%rbp, %rdi
.LVL225:
	.loc 2 1430 30 view .LVU770
	leaq	.LC1(%rip), %rcx
.LEHB17:
	call	_ZNSt7__cxx1112basic_stringIcSt11char_traitsIcESaIcEE10_M_replaceEmmPKcm@PLT
.LVL226:
.LEHE17:
	jmp	.L86
.LVL227:
	.p2align 4,,10
	.p2align 3
.L84:
	.loc 2 1430 30 view .LVU771
.LBE1647:
.LBE1648:
.LBE1649:
.LBE1665:
.LBE1670:
	.loc 8 189 40 view .LVU772
	movl	%r15d, %edx
	movq	%r14, %rsi
.LVL228:
	.loc 8 189 40 view .LVU773
	movq	%rbp, %rdi
.LVL229:
.LEHB18:
	.loc 8 189 40 view .LVU774
	call	*%rax
.LVL230:
.LEHE18:
	jmp	.L86
.LVL231:
	.p2align 4,,10
	.p2align 3
.L121:
	.loc 8 189 40 view .LVU775
.LBE1676:
.LBE1850:
.LBB1851:
.LBB1807:
.LBB1803:
.LBB1752:
	.loc 2 986 23 view .LVU776
	movl	$15, %edi
	jmp	.L91
.LVL232:
	.p2align 4,,10
	.p2align 3
.L110:
	.loc 2 986 23 view .LVU777
.LBE1752:
.LBE1803:
.LBB1804:
.LBB1758:
	movl	$15, %edi
	jmp	.L97
.LVL233:
.L120:
	.loc 2 986 23 view .LVU778
.LBE1758:
.LBE1804:
.LBE1807:
.LBE1851:
.LBB1852:
.LBB1739:
.LBB1724:
.LBB1721:
.LBB1719:
.LBB1717:
	.loc 2 312 24 view .LVU779
	leaq	.LC4(%rip), %rdi
.LEHB19:
	call	_ZSt20__throw_length_errorPKc@PLT
.LVL234:
.LEHE19:
.L111:
	.loc 2 312 24 view .LVU780
	movq	%rax, %r12
.LVL235:
	.loc 2 312 24 view .LVU781
	jmp	.L95
.LVL236:
.L115:
	.loc 2 312 24 view .LVU782
	movq	%rax, %r12
.LVL237:
	.loc 2 312 24 view .LVU783
	jmp	.L93
.LVL238:
.L114:
	.loc 2 312 24 view .LVU784
	movq	%rax, %rbx
	jmp	.L88
.LVL239:
.L112:
	.loc 2 312 24 view .LVU785
	movq	%rax, %r12
.LVL240:
	.loc 2 312 24 view .LVU786
	jmp	.L106
.LVL241:
.L113:
	.loc 2 312 24 view .LVU787
	movq	%rax, %r13
.LVL242:
	.loc 2 312 24 view .LVU788
	jmp	.L104
.LVL243:
	.loc 2 312 24 view .LVU789
.LBE1717:
.LBE1719:
.LBE1721:
.LBE1724:
.LBE1739:
.LBE1852:
.LBE1901:
.LBE1910:
.LBE1918:
	.section	.gcc_except_table._ZNSt8ios_base7failureB5cxx11C2ERKNSt7__cxx1112basic_stringIcSt11char_traitsIcESaIcEEERKSt10error_code,"a",@progbits
.LLSDA1423:
	.byte	0xff
	.byte	0xff
	.byte	0x1
	.uleb128 .LLSDACSE1423-.LLSDACSB1423
.LLSDACSB1423:
	.uleb128 .LEHB11-.LFB1423
	.uleb128 .LEHE11-.LEHB11
	.uleb128 .L114-.LFB1423
	.uleb128 0
	.uleb128 .LEHB12-.LFB1423
	.uleb128 .LEHE12-.LEHB12
	.uleb128 .L111-.LFB1423
	.uleb128 0
	.uleb128 .LEHB13-.LFB1423
	.uleb128 .LEHE13-.LEHB13
	.uleb128 .L115-.LFB1423
	.uleb128 0
	.uleb128 .LEHB14-.LFB1423
	.uleb128 .LEHE14-.LEHB14
	.uleb128 .L112-.LFB1423
	.uleb128 0
	.uleb128 .LEHB15-.LFB1423
	.uleb128 .LEHE15-.LEHB15
	.uleb128 .L113-.LFB1423
	.uleb128 0
	.uleb128 .LEHB16-.LFB1423
	.uleb128 .LEHE16-.LEHB16
	.uleb128 .L112-.LFB1423
	.uleb128 0
	.uleb128 .LEHB17-.LFB1423
	.uleb128 .LEHE17-.LEHB17
	.uleb128 .L114-.LFB1423
	.uleb128 0
	.uleb128 .LEHB18-.LFB1423
	.uleb128 .LEHE18-.LEHB18
	.uleb128 0
	.uleb128 0
	.uleb128 .LEHB19-.LFB1423
	.uleb128 .LEHE19-.LEHB19
	.uleb128 .L115-.LFB1423
	.uleb128 0
.LLSDACSE1423:
	.section	.text._ZNSt8ios_base7failureB5cxx11C2ERKNSt7__cxx1112basic_stringIcSt11char_traitsIcESaIcEEERKSt10error_code
	.cfi_endproc
	.section	.text.unlikely._ZNSt8ios_base7failureB5cxx11C2ERKNSt7__cxx1112basic_stringIcSt11char_traitsIcESaIcEEERKSt10error_code
	.cfi_startproc
	.cfi_personality 0x9b,DW.ref.__gxx_personality_v0
	.cfi_lsda 0x1b,.LLSDAC1423
	.type	_ZNSt8ios_base7failureB5cxx11C2ERKNSt7__cxx1112basic_stringIcSt11char_traitsIcESaIcEEERKSt10error_code.cold.26, @function
_ZNSt8ios_base7failureB5cxx11C2ERKNSt7__cxx1112basic_stringIcSt11char_traitsIcESaIcEEERKSt10error_code.cold.26:
.LBB1919:
.LBB1911:
.LBB1902:
.LBB1853:
.LBB1740:
.LBB1725:
.LBB1722:
.LBB1720:
.LBB1718:
.L93:
	.cfi_def_cfa_offset 160
	.cfi_offset 3, -56
	.cfi_offset 6, -48
	.cfi_offset 12, -40
	.cfi_offset 13, -32
	.cfi_offset 14, -24
	.cfi_offset 15, -16
.LVL244:
	.loc 2 312 24 view -0
.LBE1718:
.LBE1720:
.LBE1722:
.LBE1725:
.LBB1726:
.LBB1727:
.LBI1727:
	.loc 2 218 7 is_stmt 1 view .LVU791
.LBB1728:
.LBB1729:
.LBI1729:
	.loc 2 210 7 view .LVU792
.LBB1730:
	.loc 2 211 26 is_stmt 0 view .LVU793
	movq	(%rsp), %rdi
.LVL245:
	.loc 2 211 26 view .LVU794
.LBE1730:
.LBE1729:
	.loc 2 220 2 view .LVU795
	addq	$16, %rbx
.LVL246:
	.loc 2 220 2 view .LVU796
	cmpq	%rbx, %rdi
	je	.L95
.LVL247:
.LBB1731:
.LBI1731:
	.loc 2 225 7 is_stmt 1 view .LVU797
.LBB1732:
.LBI1732:
	.loc 7 461 7 view .LVU798
.LBB1733:
.LBI1733:
	.loc 4 116 7 view .LVU799
.LBB1734:
	.loc 4 125 19 is_stmt 0 view .LVU800
	call	_ZdlPv@PLT
.LVL248:
	.loc 4 125 19 view .LVU801
.LBE1734:
.LBE1733:
.LBE1732:
.LBE1731:
.LBE1728:
.LBE1727:
.LBB1735:
.LBI1735:
	.loc 2 139 14 is_stmt 1 view .LVU802
.LBB1736:
.LBI1736:
	.loc 3 139 7 view .LVU803
.LBB1737:
.LBI1737:
	.loc 4 86 7 view .LVU804
.L95:
	.loc 4 86 7 is_stmt 0 view .LVU805
.LBE1737:
.LBE1736:
.LBE1735:
.LBE1726:
.LBE1740:
.LBE1853:
.LBB1854:
.LBI1854:
	.loc 2 656 7 is_stmt 1 view .LVU806
.LBB1855:
.LBI1855:
	.loc 2 218 7 view .LVU807
.LBB1856:
.LBB1857:
.LBI1857:
	.loc 2 210 7 view .LVU808
.LBB1858:
	.loc 2 211 26 is_stmt 0 view .LVU809
	movq	32(%rsp), %rdi
.LVL249:
.LBB1859:
.LBI1859:
	.loc 2 189 7 is_stmt 1 view .LVU810
	.loc 2 189 7 is_stmt 0 view .LVU811
.LBE1859:
.LBE1858:
.LBE1857:
	.loc 2 220 2 view .LVU812
	addq	$16, %rbp
.LVL250:
	.loc 2 220 2 view .LVU813
	cmpq	%rbp, %rdi
	je	.L108
.LVL251:
.LBB1860:
.LBI1860:
	.loc 2 225 7 is_stmt 1 view .LVU814
.LBB1861:
.LBI1861:
	.loc 7 461 7 view .LVU815
.LBB1862:
.LBI1862:
	.loc 4 116 7 view .LVU816
.LBB1863:
	.loc 4 125 19 is_stmt 0 view .LVU817
	call	_ZdlPv@PLT
.LVL252:
.L108:
	.loc 4 125 19 view .LVU818
.LBE1863:
.LBE1862:
.LBE1861:
.LBE1860:
.LBE1856:
.LBE1855:
.LBB1864:
.LBI1864:
	.loc 2 139 14 is_stmt 1 view .LVU819
.LBB1865:
.LBI1865:
	.loc 3 139 7 view .LVU820
.LBB1866:
.LBI1866:
	.loc 4 86 7 view .LVU821
	.loc 4 86 7 is_stmt 0 view .LVU822
	movq	%r12, %rdi
.LEHB20:
	call	_Unwind_Resume@PLT
.LVL253:
.L104:
	.loc 4 86 7 view .LVU823
.LBE1866:
.LBE1865:
.LBE1864:
.LBE1854:
.LBB1867:
.LBI1867:
	.loc 2 656 7 is_stmt 1 view .LVU824
.LBB1868:
.LBI1868:
	.loc 2 218 7 view .LVU825
.LBB1869:
.LBB1870:
.LBI1870:
	.loc 2 210 7 view .LVU826
.LBB1871:
	.loc 2 211 26 is_stmt 0 view .LVU827
	movq	64(%rsp), %rdi
.LVL254:
.LBB1872:
.LBI1872:
	.loc 2 189 7 is_stmt 1 view .LVU828
	.loc 2 189 7 is_stmt 0 view .LVU829
.LBE1872:
.LBE1871:
.LBE1870:
	.loc 2 220 2 view .LVU830
	addq	$16, %r12
.LVL255:
	.loc 2 220 2 view .LVU831
	cmpq	%r12, %rdi
	je	.L105
.LVL256:
.LBB1873:
.LBI1873:
	.loc 2 225 7 is_stmt 1 view .LVU832
.LBB1874:
.LBI1874:
	.loc 7 461 7 view .LVU833
.LBB1875:
.LBI1875:
	.loc 4 116 7 view .LVU834
.LBB1876:
	.loc 4 125 19 is_stmt 0 view .LVU835
	call	_ZdlPv@PLT
.LVL257:
.L105:
	.loc 4 125 19 view .LVU836
.LBE1876:
.LBE1875:
.LBE1874:
.LBE1873:
.LBE1869:
.LBE1868:
.LBB1877:
.LBI1877:
	.loc 2 139 14 is_stmt 1 view .LVU837
.LBB1878:
.LBI1878:
	.loc 3 139 7 view .LVU838
.LBB1879:
.LBI1879:
	.loc 4 86 7 view .LVU839
	.loc 4 86 7 is_stmt 0 view .LVU840
	movq	%r13, %r12
.LVL258:
.L106:
	.loc 4 86 7 view .LVU841
.LBE1879:
.LBE1878:
.LBE1877:
.LBE1867:
.LBB1880:
.LBI1880:
	.loc 2 656 7 is_stmt 1 view .LVU842
.LBB1881:
.LBI1881:
	.loc 2 218 7 view .LVU843
.LBB1882:
.LBB1883:
.LBI1883:
	.loc 2 210 7 view .LVU844
.LBB1884:
	.loc 2 211 26 is_stmt 0 view .LVU845
	movq	(%rsp), %rdi
.LVL259:
.LBB1885:
.LBI1885:
	.loc 2 189 7 is_stmt 1 view .LVU846
	.loc 2 189 7 is_stmt 0 view .LVU847
.LBE1885:
.LBE1884:
.LBE1883:
	.loc 2 220 2 view .LVU848
	addq	$16, %rbx
.LVL260:
	.loc 2 220 2 view .LVU849
	cmpq	%rbx, %rdi
	je	.L95
.LVL261:
.LBB1886:
.LBI1886:
	.loc 2 225 7 is_stmt 1 view .LVU850
.LBB1887:
.LBI1887:
	.loc 7 461 7 view .LVU851
.LBB1888:
.LBI1888:
	.loc 4 116 7 view .LVU852
.LBB1889:
	.loc 4 125 19 is_stmt 0 view .LVU853
	call	_ZdlPv@PLT
.LVL262:
	.loc 4 125 19 view .LVU854
.LBE1889:
.LBE1888:
.LBE1887:
.LBE1886:
.LBE1882:
.LBE1881:
.LBB1890:
.LBI1890:
	.loc 2 139 14 is_stmt 1 view .LVU855
.LBB1891:
.LBI1891:
	.loc 3 139 7 view .LVU856
.LBB1892:
.LBI1892:
	.loc 4 86 7 view .LVU857
	.loc 4 86 7 is_stmt 0 view .LVU858
	jmp	.L95
.LVL263:
.L88:
	.loc 4 86 7 view .LVU859
.LBE1892:
.LBE1891:
.LBE1890:
.LBE1880:
.LBB1893:
.LBB1677:
.LBB1671:
.LBB1666:
.LBB1650:
.LBB1651:
.LBI1651:
	.loc 2 218 7 is_stmt 1 view .LVU860
.LBB1652:
.LBB1653:
.LBI1653:
	.loc 2 210 7 view .LVU861
.LBB1654:
	.loc 2 211 26 is_stmt 0 view .LVU862
	movq	32(%rsp), %rdi
.LVL264:
	.loc 2 211 26 view .LVU863
.LBE1654:
.LBE1653:
	.loc 2 220 2 view .LVU864
	addq	$16, %rbp
.LVL265:
	.loc 2 220 2 view .LVU865
	cmpq	%rbp, %rdi
	je	.L89
.LVL266:
.LBB1655:
.LBI1655:
	.loc 2 225 7 is_stmt 1 view .LVU866
.LBB1656:
.LBI1656:
	.loc 7 461 7 view .LVU867
.LBB1657:
.LBI1657:
	.loc 4 116 7 view .LVU868
.LBB1658:
	.loc 4 125 19 is_stmt 0 view .LVU869
	call	_ZdlPv@PLT
.LVL267:
.L89:
	.loc 4 125 19 view .LVU870
.LBE1658:
.LBE1657:
.LBE1656:
.LBE1655:
.LBE1652:
.LBE1651:
.LBB1659:
.LBI1659:
	.loc 2 139 14 is_stmt 1 view .LVU871
.LBB1660:
.LBI1660:
	.loc 3 139 7 view .LVU872
.LBB1661:
.LBI1661:
	.loc 4 86 7 view .LVU873
	.loc 4 86 7 is_stmt 0 view .LVU874
	movq	%rbx, %rdi
	call	_Unwind_Resume@PLT
.LVL268:
.LEHE20:
.LBE1661:
.LBE1660:
.LBE1659:
.LBE1650:
.LBE1666:
.LBE1671:
.LBE1677:
.LBE1893:
.LBE1902:
.LBE1911:
.LBE1919:
	.cfi_endproc
.LFE1423:
	.section	.gcc_except_table._ZNSt8ios_base7failureB5cxx11C2ERKNSt7__cxx1112basic_stringIcSt11char_traitsIcESaIcEEERKSt10error_code
.LLSDAC1423:
	.byte	0xff
	.byte	0xff
	.byte	0x1
	.uleb128 .LLSDACSEC1423-.LLSDACSBC1423
.LLSDACSBC1423:
	.uleb128 .LEHB20-.LCOLDB7
	.uleb128 .LEHE20-.LEHB20
	.uleb128 0
	.uleb128 0
.LLSDACSEC1423:
	.section	.text.unlikely._ZNSt8ios_base7failureB5cxx11C2ERKNSt7__cxx1112basic_stringIcSt11char_traitsIcESaIcEEERKSt10error_code
	.section	.text._ZNSt8ios_base7failureB5cxx11C2ERKNSt7__cxx1112basic_stringIcSt11char_traitsIcESaIcEEERKSt10error_code
	.size	_ZNSt8ios_base7failureB5cxx11C2ERKNSt7__cxx1112basic_stringIcSt11char_traitsIcESaIcEEERKSt10error_code, .-_ZNSt8ios_base7failureB5cxx11C2ERKNSt7__cxx1112basic_stringIcSt11char_traitsIcESaIcEEERKSt10error_code
	.section	.text.unlikely._ZNSt8ios_base7failureB5cxx11C2ERKNSt7__cxx1112basic_stringIcSt11char_traitsIcESaIcEEERKSt10error_code
	.size	_ZNSt8ios_base7failureB5cxx11C2ERKNSt7__cxx1112basic_stringIcSt11char_traitsIcESaIcEEERKSt10error_code.cold.26, .-_ZNSt8ios_base7failureB5cxx11C2ERKNSt7__cxx1112basic_stringIcSt11char_traitsIcESaIcEEERKSt10error_code.cold.26
.LCOLDE7:
	.section	.text._ZNSt8ios_base7failureB5cxx11C2ERKNSt7__cxx1112basic_stringIcSt11char_traitsIcESaIcEEERKSt10error_code
.LHOTE7:
	.globl	_ZNSt8ios_base7failureB5cxx11C1ERKNSt7__cxx1112basic_stringIcSt11char_traitsIcESaIcEEERKSt10error_code
	.set	_ZNSt8ios_base7failureB5cxx11C1ERKNSt7__cxx1112basic_stringIcSt11char_traitsIcESaIcEEERKSt10error_code,_ZNSt8ios_base7failureB5cxx11C2ERKNSt7__cxx1112basic_stringIcSt11char_traitsIcESaIcEEERKSt10error_code
	.section	.text.unlikely._ZNSt8ios_base7failureB5cxx11C2EPKcRKSt10error_code,"ax",@progbits
	.align 2
.LCOLDB8:
	.section	.text._ZNSt8ios_base7failureB5cxx11C2EPKcRKSt10error_code,"ax",@progbits
.LHOTB8:
	.align 2
	.p2align 4,,15
	.globl	_ZNSt8ios_base7failureB5cxx11C2EPKcRKSt10error_code
	.type	_ZNSt8ios_base7failureB5cxx11C2EPKcRKSt10error_code, @function
_ZNSt8ios_base7failureB5cxx11C2EPKcRKSt10error_code:
.LVL269:
.LFB1426:
	.loc 1 93 3 is_stmt 1 view -0
	.cfi_startproc
	.cfi_personality 0x9b,DW.ref.__gxx_personality_v0
	.cfi_lsda 0x1b,.LLSDA1426
	.loc 1 93 3 is_stmt 0 view .LVU876
	pushq	%r15
	.cfi_def_cfa_offset 16
	.cfi_offset 15, -16
	pushq	%r14
	.cfi_def_cfa_offset 24
	.cfi_offset 14, -24
	pushq	%r13
	.cfi_def_cfa_offset 32
	.cfi_offset 13, -32
	movq	%rdi, %r13
.LVL270:
	.loc 1 93 3 view .LVU877
	pushq	%r12
	.cfi_def_cfa_offset 40
	.cfi_offset 12, -40
	movq	%rsi, %r12
	pushq	%rbp
	.cfi_def_cfa_offset 48
	.cfi_offset 6, -48
	pushq	%rbx
	.cfi_def_cfa_offset 56
	.cfi_offset 3, -56
	subq	$104, %rsp
	.cfi_def_cfa_offset 160
	movq	8(%rdx), %r14
	movl	(%rdx), %r15d
.LVL271:
.LBB2135:
.LBB2136:
.LBI2136:
	.loc 8 353 5 is_stmt 1 view .LVU878
.LBB2137:
.LBB2138:
.LBI2138:
	.loc 8 188 5 view .LVU879
.LBB2139:
	.loc 8 189 7 view .LVU880
	.loc 8 189 7 is_stmt 0 view .LVU881
.LBE2139:
.LBE2138:
.LBE2137:
.LBE2136:
.LBE2135:
	.loc 8 181 33 is_stmt 1 view .LVU882
	leaq	_ZNK12_GLOBAL__N_117io_error_category7messageB5cxx11Ei(%rip), %rdx
.LVL272:
.LBB2410:
.LBB2400:
.LBB2390:
.LBB2204:
.LBB2198:
.LBB2140:
.LBB2141:
.LBB2142:
.LBB2143:
.LBB2144:
	.loc 2 149 46 is_stmt 0 view .LVU883
	movq	%rsp, %rbx
.LBE2144:
.LBE2143:
.LBE2142:
.LBE2141:
.LBE2140:
	.loc 8 189 40 view .LVU884
	movq	(%r14), %rax
	movq	32(%rax), %rax
.LVL273:
	.loc 8 189 40 view .LVU885
.LBE2198:
.LBE2204:
.LBE2390:
.LBE2400:
.LBE2410:
	.loc 8 178 30 is_stmt 1 view .LVU886
	cmpq	%rdx, %rax
	jne	.L125
.LVL274:
.LBB2411:
.LBB2401:
.LBB2391:
.LBB2205:
.LBB2199:
.LBB2193:
.LBI2140:
	.loc 1 54 25 view .LVU887
.LBB2188:
	.loc 1 56 7 view .LVU888
.LBB2165:
.LBI2142:
	.loc 2 420 7 view .LVU889
.LBB2150:
.LBI2150:
	.loc 3 131 7 view .LVU890
.LBB2151:
.LBI2151:
	.loc 4 79 7 view .LVU891
	.loc 4 79 7 is_stmt 0 view .LVU892
.LBE2151:
.LBE2150:
.LBB2152:
.LBI2152:
	.loc 2 179 7 is_stmt 1 view .LVU893
	.loc 2 179 7 is_stmt 0 view .LVU894
.LBE2152:
.LBB2153:
.LBI2143:
	.loc 2 148 2 is_stmt 1 view .LVU895
.LBB2148:
.LBB2145:
.LBI2145:
	.loc 5 99 5 view .LVU896
	.loc 5 99 5 is_stmt 0 view .LVU897
.LBE2145:
.LBB2146:
.LBI2146:
	.loc 3 133 7 is_stmt 1 view .LVU898
.LBB2147:
.LBI2147:
	.loc 4 81 7 view .LVU899
	.loc 4 81 7 is_stmt 0 view .LVU900
.LBE2147:
.LBE2146:
	.loc 2 149 46 view .LVU901
	leaq	16(%rbx), %rax
.LBE2148:
.LBE2153:
.LBB2154:
.LBB2155:
.LBB2156:
	.loc 6 285 14 view .LVU902
	movb	$0, 16(%rsp)
.LBE2156:
.LBE2155:
.LBE2154:
.LBB2161:
.LBB2149:
	.loc 2 149 46 view .LVU903
	movq	%rax, (%rsp)
.LVL275:
	.loc 2 149 46 view .LVU904
.LBE2149:
.LBE2161:
.LBB2162:
.LBI2162:
	.loc 3 139 7 is_stmt 1 view .LVU905
.LBB2163:
.LBI2163:
	.loc 4 86 7 view .LVU906
	.loc 4 86 7 is_stmt 0 view .LVU907
.LBE2163:
.LBE2162:
.LBB2164:
.LBI2154:
	.loc 2 203 7 is_stmt 1 view .LVU908
.LBB2158:
.LBI2158:
	.loc 2 171 7 view .LVU909
.LBB2159:
	.loc 2 172 9 is_stmt 0 view .LVU910
	movq	$0, 8(%rsp)
.LVL276:
	.loc 2 172 9 view .LVU911
.LBE2159:
.LBE2158:
.LBB2160:
.LBI2155:
	.loc 6 284 7 is_stmt 1 view .LVU912
.LBB2157:
	.loc 6 285 9 view .LVU913
	.loc 6 285 9 is_stmt 0 view .LVU914
.LBE2157:
.LBE2160:
.LBE2164:
.LBE2165:
	.loc 1 57 7 is_stmt 1 view .LVU915
	cmpl	$1, %r15d
	je	.L150
	.loc 1 62 7 view .LVU916
	.loc 1 63 11 view .LVU917
.LVL277:
.LBB2166:
.LBI2166:
	.loc 2 703 7 view .LVU918
.LBB2167:
.LBI2167:
	.loc 2 1426 7 view .LVU919
	.loc 2 1426 7 is_stmt 0 view .LVU920
.LBE2167:
.LBE2166:
.LBE2188:
.LBE2193:
.LBE2199:
.LBE2205:
.LBE2391:
.LBE2401:
.LBE2411:
	.loc 6 320 2 is_stmt 1 view .LVU921
.LBB2412:
.LBB2402:
.LBB2392:
.LBB2206:
.LBB2200:
.LBB2194:
.LBB2189:
.LBB2170:
.LBB2169:
.LBB2168:
	.loc 2 1430 30 is_stmt 0 view .LVU922
	movl	$13, %r8d
	xorl	%edx, %edx
	xorl	%esi, %esi
.LVL278:
	.loc 2 1430 30 view .LVU923
	movq	%rbx, %rdi
.LVL279:
	.loc 2 1430 30 view .LVU924
	leaq	.LC2(%rip), %rcx
.LEHB21:
	call	_ZNSt7__cxx1112basic_stringIcSt11char_traitsIcESaIcEE10_M_replaceEmmPKcm@PLT
.LVL280:
.LEHE21:
.L127:
	.loc 2 1430 30 view .LVU925
.LBE2168:
.LBE2169:
.LBE2170:
.LBE2189:
.LBE2194:
.LBE2200:
.LBE2206:
.LBB2207:
.LBI2207:
	.loc 2 6007 5 is_stmt 1 view .LVU926
.LBB2208:
.LBI2208:
	.loc 2 1687 7 view .LVU927
	.loc 2 1687 7 is_stmt 0 view .LVU928
.LBE2208:
.LBE2207:
.LBE2392:
.LBE2402:
.LBE2412:
	.loc 6 320 2 is_stmt 1 view .LVU929
.LBB2413:
.LBB2403:
.LBB2393:
.LBB2251:
.LBB2211:
.LBB2209:
.LBI2209:
	.loc 2 1918 7 view .LVU930
.LBB2210:
	.loc 2 1923 38 is_stmt 0 view .LVU931
	movl	$2, %r8d
	xorl	%edx, %edx
	xorl	%esi, %esi
	movq	%rbx, %rdi
	leaq	.LC5(%rip), %rcx
.LEHB22:
	call	_ZNSt7__cxx1112basic_stringIcSt11char_traitsIcESaIcEE10_M_replaceEmmPKcm@PLT
.LVL281:
.LEHE22:
	.loc 2 1923 38 view .LVU932
.LBE2210:
.LBE2209:
.LBE2211:
.LBB2212:
.LBI2212:
	.loc 2 541 7 is_stmt 1 view .LVU933
.LBB2213:
.LBB2214:
.LBI2214:
	.loc 2 275 7 view .LVU934
	.loc 2 275 7 is_stmt 0 view .LVU935
.LBE2214:
.LBB2215:
.LBI2215:
	.loc 5 99 5 is_stmt 1 view .LVU936
	.loc 5 99 5 is_stmt 0 view .LVU937
.LBE2215:
.LBB2216:
.LBI2216:
	.loc 2 179 7 is_stmt 1 view .LVU938
	.loc 2 179 7 is_stmt 0 view .LVU939
.LBE2216:
.LBB2217:
.LBI2217:
	.loc 2 148 2 is_stmt 1 view .LVU940
.LBB2218:
.LBB2219:
.LBI2219:
	.loc 5 99 5 view .LVU941
	.loc 5 99 5 is_stmt 0 view .LVU942
.LBE2219:
.LBB2220:
.LBI2220:
	.loc 3 133 7 is_stmt 1 view .LVU943
.LBB2221:
.LBI2221:
	.loc 4 81 7 view .LVU944
	.loc 4 81 7 is_stmt 0 view .LVU945
.LBE2221:
.LBE2220:
	.loc 2 149 46 view .LVU946
	leaq	32(%rsp), %rbp
.LVL282:
	.loc 2 149 46 view .LVU947
	leaq	16(%rbp), %rdx
	movq	%rdx, 32(%rsp)
.LVL283:
	.loc 2 149 46 view .LVU948
.LBE2218:
.LBE2217:
.LBB2222:
.LBI2222:
	.loc 2 210 7 is_stmt 1 view .LVU949
.LBB2223:
	.loc 2 211 26 is_stmt 0 view .LVU950
	movq	(%rax), %rcx
.LVL284:
.LBB2224:
.LBI2224:
	.loc 2 189 7 is_stmt 1 view .LVU951
.LBB2225:
	.loc 2 192 57 is_stmt 0 view .LVU952
	leaq	16(%rax), %rdx
.LVL285:
	.loc 2 192 57 view .LVU953
.LBE2225:
.LBE2224:
.LBE2223:
.LBE2222:
	.loc 2 544 2 view .LVU954
	cmpq	%rdx, %rcx
	je	.L151
.LBB2226:
.LBI2226:
	.loc 2 175 7 is_stmt 1 view .LVU955
.LVL286:
	.loc 2 175 7 is_stmt 0 view .LVU956
.LBE2226:
.LBB2227:
.LBI2227:
	.loc 2 167 7 is_stmt 1 view .LVU957
.LBB2228:
	.loc 2 168 9 is_stmt 0 view .LVU958
	movq	%rcx, 32(%rsp)
.LVL287:
	.loc 2 168 9 view .LVU959
.LBE2228:
.LBE2227:
	.loc 2 552 6 view .LVU960
	movq	16(%rax), %rcx
.LVL288:
.LBB2229:
.LBI2229:
	.loc 2 199 7 is_stmt 1 view .LVU961
.LBB2230:
	.loc 2 200 9 is_stmt 0 view .LVU962
	movq	%rcx, 48(%rsp)
.LVL289:
.L132:
	.loc 2 200 9 view .LVU963
.LBE2230:
.LBE2229:
	.loc 2 558 2 view .LVU964
	movq	8(%rax), %rcx
.LBB2231:
.LBI2231:
	.loc 2 927 7 is_stmt 1 view .LVU965
.LVL290:
	.loc 2 927 7 is_stmt 0 view .LVU966
.LBE2231:
.LBB2232:
.LBI2232:
	.loc 2 171 7 is_stmt 1 view .LVU967
	.loc 2 171 7 is_stmt 0 view .LVU968
.LBE2232:
.LBB2234:
.LBB2235:
.LBB2236:
	.loc 6 285 14 view .LVU969
	movb	$0, 16(%rax)
.LBE2236:
.LBE2235:
.LBE2234:
.LBE2213:
.LBE2212:
.LBE2251:
.LBB2252:
.LBB2253:
.LBB2254:
.LBB2255:
	.loc 6 320 25 view .LVU970
	movq	%r12, %rdi
.LBE2255:
.LBE2254:
.LBE2253:
.LBE2252:
.LBB2304:
.LBB2249:
.LBB2247:
.LBB2241:
.LBB2233:
	.loc 2 172 9 view .LVU971
	movq	%rcx, 40(%rsp)
.LVL291:
	.loc 2 172 9 view .LVU972
.LBE2233:
.LBE2241:
.LBB2242:
.LBI2242:
	.loc 2 179 7 is_stmt 1 view .LVU973
	.loc 2 179 7 is_stmt 0 view .LVU974
.LBE2242:
.LBB2243:
.LBI2243:
	.loc 2 167 7 is_stmt 1 view .LVU975
.LBB2244:
	.loc 2 168 9 is_stmt 0 view .LVU976
	movq	%rdx, (%rax)
.LVL292:
	.loc 2 168 9 view .LVU977
.LBE2244:
.LBE2243:
.LBB2245:
.LBI2234:
	.loc 2 203 7 is_stmt 1 view .LVU978
.LBB2238:
.LBI2238:
	.loc 2 171 7 view .LVU979
.LBB2239:
	.loc 2 172 9 is_stmt 0 view .LVU980
	movq	$0, 8(%rax)
.LVL293:
	.loc 2 172 9 view .LVU981
.LBE2239:
.LBE2238:
.LBB2240:
.LBI2235:
	.loc 6 284 7 is_stmt 1 view .LVU982
.LBB2237:
	.loc 6 285 9 view .LVU983
	.loc 6 285 9 is_stmt 0 view .LVU984
.LBE2237:
.LBE2240:
.LBE2245:
.LBE2247:
.LBE2249:
.LBE2304:
.LBB2305:
.LBI2252:
	.loc 2 6007 5 is_stmt 1 view .LVU985
.LBB2264:
.LBI2253:
	.loc 2 1687 7 view .LVU986
.LBB2258:
.LBI2254:
	.loc 6 314 7 view .LVU987
.LBB2256:
	.loc 6 320 2 view .LVU988
	.loc 6 320 25 is_stmt 0 view .LVU989
	call	strlen@PLT
.LVL294:
	.loc 6 320 25 view .LVU990
.LBE2256:
.LBE2258:
.LBB2259:
.LBB2260:
	.loc 2 1923 38 view .LVU991
	movq	%r12, %rcx
	xorl	%edx, %edx
	xorl	%esi, %esi
.LBE2260:
.LBE2259:
.LBB2262:
.LBB2257:
	.loc 6 320 25 view .LVU992
	movq	%rax, %r8
.LVL295:
	.loc 6 320 25 view .LVU993
.LBE2257:
.LBE2262:
.LBB2263:
.LBI2259:
	.loc 2 1918 7 is_stmt 1 view .LVU994
.LBB2261:
	.loc 2 1923 38 is_stmt 0 view .LVU995
	movq	%rbp, %rdi
.LEHB23:
	call	_ZNSt7__cxx1112basic_stringIcSt11char_traitsIcESaIcEE10_M_replaceEmmPKcm@PLT
.LVL296:
.LEHE23:
	.loc 2 1923 38 view .LVU996
.LBE2261:
.LBE2263:
.LBE2264:
.LBB2265:
.LBI2265:
	.loc 2 541 7 is_stmt 1 view .LVU997
.LBB2266:
.LBB2267:
.LBI2267:
	.loc 2 275 7 view .LVU998
	.loc 2 275 7 is_stmt 0 view .LVU999
.LBE2267:
.LBB2268:
.LBI2268:
	.loc 5 99 5 is_stmt 1 view .LVU1000
	.loc 5 99 5 is_stmt 0 view .LVU1001
.LBE2268:
.LBB2269:
.LBI2269:
	.loc 2 179 7 is_stmt 1 view .LVU1002
	.loc 2 179 7 is_stmt 0 view .LVU1003
.LBE2269:
.LBB2270:
.LBI2270:
	.loc 2 148 2 is_stmt 1 view .LVU1004
.LBB2271:
.LBB2272:
.LBI2272:
	.loc 5 99 5 view .LVU1005
	.loc 5 99 5 is_stmt 0 view .LVU1006
.LBE2272:
.LBB2273:
.LBI2273:
	.loc 3 133 7 is_stmt 1 view .LVU1007
.LBB2274:
.LBI2274:
	.loc 4 81 7 view .LVU1008
	.loc 4 81 7 is_stmt 0 view .LVU1009
.LBE2274:
.LBE2273:
	.loc 2 149 46 view .LVU1010
	leaq	64(%rsp), %r12
.LVL297:
	.loc 2 149 46 view .LVU1011
	leaq	16(%r12), %rdx
	movq	%rdx, 64(%rsp)
.LVL298:
	.loc 2 149 46 view .LVU1012
.LBE2271:
.LBE2270:
.LBB2275:
.LBI2275:
	.loc 2 210 7 is_stmt 1 view .LVU1013
.LBB2276:
	.loc 2 211 26 is_stmt 0 view .LVU1014
	movq	(%rax), %rcx
.LVL299:
.LBB2277:
.LBI2277:
	.loc 2 189 7 is_stmt 1 view .LVU1015
.LBB2278:
	.loc 2 192 57 is_stmt 0 view .LVU1016
	leaq	16(%rax), %rdx
.LVL300:
	.loc 2 192 57 view .LVU1017
.LBE2278:
.LBE2277:
.LBE2276:
.LBE2275:
	.loc 2 544 2 view .LVU1018
	cmpq	%rdx, %rcx
	je	.L152
.LBB2279:
.LBI2279:
	.loc 2 175 7 is_stmt 1 view .LVU1019
.LVL301:
	.loc 2 175 7 is_stmt 0 view .LVU1020
.LBE2279:
.LBB2280:
.LBI2280:
	.loc 2 167 7 is_stmt 1 view .LVU1021
.LBB2281:
	.loc 2 168 9 is_stmt 0 view .LVU1022
	movq	%rcx, 64(%rsp)
.LVL302:
	.loc 2 168 9 view .LVU1023
.LBE2281:
.LBE2280:
	.loc 2 552 6 view .LVU1024
	movq	16(%rax), %rcx
.LVL303:
.LBB2282:
.LBI2282:
	.loc 2 199 7 is_stmt 1 view .LVU1025
.LBB2283:
	.loc 2 200 9 is_stmt 0 view .LVU1026
	movq	%rcx, 80(%rsp)
.LVL304:
.L134:
	.loc 2 200 9 view .LVU1027
.LBE2283:
.LBE2282:
	.loc 2 558 2 view .LVU1028
	movq	8(%rax), %rcx
.LVL305:
.LBB2284:
.LBI2284:
	.loc 2 927 7 is_stmt 1 view .LVU1029
	.loc 2 927 7 is_stmt 0 view .LVU1030
.LBE2284:
.LBB2285:
.LBI2285:
	.loc 2 171 7 is_stmt 1 view .LVU1031
	.loc 2 171 7 is_stmt 0 view .LVU1032
.LBE2285:
.LBB2287:
.LBB2288:
.LBB2289:
	.loc 6 285 14 view .LVU1033
	movb	$0, 16(%rax)
.LBE2289:
.LBE2288:
.LBE2287:
.LBE2266:
.LBE2265:
.LBE2305:
	.loc 8 354 68 view .LVU1034
	movq	%r12, %rsi
	movq	%r13, %rdi
.LBB2306:
.LBB2302:
.LBB2300:
.LBB2294:
.LBB2286:
	.loc 2 172 9 view .LVU1035
	movq	%rcx, 72(%rsp)
.LVL306:
	.loc 2 172 9 view .LVU1036
.LBE2286:
.LBE2294:
.LBB2295:
.LBI2295:
	.loc 2 179 7 is_stmt 1 view .LVU1037
	.loc 2 179 7 is_stmt 0 view .LVU1038
.LBE2295:
.LBB2296:
.LBI2296:
	.loc 2 167 7 is_stmt 1 view .LVU1039
.LBB2297:
	.loc 2 168 9 is_stmt 0 view .LVU1040
	movq	%rdx, (%rax)
.LVL307:
	.loc 2 168 9 view .LVU1041
.LBE2297:
.LBE2296:
.LBB2298:
.LBI2287:
	.loc 2 203 7 is_stmt 1 view .LVU1042
.LBB2291:
.LBI2291:
	.loc 2 171 7 view .LVU1043
.LBB2292:
	.loc 2 172 9 is_stmt 0 view .LVU1044
	movq	$0, 8(%rax)
.LVL308:
	.loc 2 172 9 view .LVU1045
.LBE2292:
.LBE2291:
.LBB2293:
.LBI2288:
	.loc 6 284 7 is_stmt 1 view .LVU1046
.LBB2290:
	.loc 6 285 9 view .LVU1047
.LEHB24:
	.loc 6 285 9 is_stmt 0 view .LVU1048
.LBE2290:
.LBE2293:
.LBE2298:
.LBE2300:
.LBE2302:
.LBE2306:
	.loc 8 354 68 view .LVU1049
	call	_ZNSt13runtime_errorC2ERKNSt7__cxx1112basic_stringIcSt11char_traitsIcESaIcEEE@PLT
.LVL309:
.LEHE24:
.LBB2307:
.LBI2307:
	.loc 2 656 7 is_stmt 1 view .LVU1050
.LBB2308:
.LBI2308:
	.loc 2 218 7 view .LVU1051
.LBB2309:
.LBB2310:
.LBI2310:
	.loc 2 210 7 view .LVU1052
.LBB2311:
	.loc 2 211 26 is_stmt 0 view .LVU1053
	movq	64(%rsp), %rdi
.LVL310:
.LBB2312:
.LBI2312:
	.loc 2 189 7 is_stmt 1 view .LVU1054
	.loc 2 189 7 is_stmt 0 view .LVU1055
.LBE2312:
.LBE2311:
.LBE2310:
	.loc 2 220 2 view .LVU1056
	addq	$16, %r12
.LVL311:
	.loc 2 220 2 view .LVU1057
	cmpq	%r12, %rdi
	je	.L135
.LVL312:
.LBB2313:
.LBI2313:
	.loc 2 225 7 is_stmt 1 view .LVU1058
.LBB2314:
.LBI2314:
	.loc 7 461 7 view .LVU1059
.LBB2315:
.LBI2315:
	.loc 4 116 7 view .LVU1060
.LBB2316:
	.loc 4 125 19 is_stmt 0 view .LVU1061
	call	_ZdlPv@PLT
.LVL313:
.L135:
	.loc 4 125 19 view .LVU1062
.LBE2316:
.LBE2315:
.LBE2314:
.LBE2313:
.LBE2309:
.LBE2308:
.LBB2317:
.LBI2317:
	.loc 2 139 14 is_stmt 1 view .LVU1063
.LBB2318:
.LBI2318:
	.loc 3 139 7 view .LVU1064
.LBB2319:
.LBI2319:
	.loc 4 86 7 view .LVU1065
	.loc 4 86 7 is_stmt 0 view .LVU1066
.LBE2319:
.LBE2318:
.LBE2317:
.LBE2307:
.LBB2320:
.LBI2320:
	.loc 2 656 7 is_stmt 1 view .LVU1067
.LBB2321:
.LBI2321:
	.loc 2 218 7 view .LVU1068
.LBB2322:
.LBB2323:
.LBI2323:
	.loc 2 210 7 view .LVU1069
.LBB2324:
	.loc 2 211 26 is_stmt 0 view .LVU1070
	movq	32(%rsp), %rdi
.LVL314:
.LBB2325:
.LBI2325:
	.loc 2 189 7 is_stmt 1 view .LVU1071
	.loc 2 189 7 is_stmt 0 view .LVU1072
.LBE2325:
.LBE2324:
.LBE2323:
	.loc 2 220 2 view .LVU1073
	addq	$16, %rbp
.LVL315:
	.loc 2 220 2 view .LVU1074
	cmpq	%rbp, %rdi
	je	.L136
.LVL316:
.LBB2326:
.LBI2326:
	.loc 2 225 7 is_stmt 1 view .LVU1075
.LBB2327:
.LBI2327:
	.loc 7 461 7 view .LVU1076
.LBB2328:
.LBI2328:
	.loc 4 116 7 view .LVU1077
.LBB2329:
	.loc 4 125 19 is_stmt 0 view .LVU1078
	call	_ZdlPv@PLT
.LVL317:
.L136:
	.loc 4 125 19 view .LVU1079
.LBE2329:
.LBE2328:
.LBE2327:
.LBE2326:
.LBE2322:
.LBE2321:
.LBB2330:
.LBI2330:
	.loc 2 139 14 is_stmt 1 view .LVU1080
.LBB2331:
.LBI2331:
	.loc 3 139 7 view .LVU1081
.LBB2332:
.LBI2332:
	.loc 4 86 7 view .LVU1082
	.loc 4 86 7 is_stmt 0 view .LVU1083
.LBE2332:
.LBE2331:
.LBE2330:
.LBE2320:
.LBB2333:
.LBI2333:
	.loc 2 656 7 is_stmt 1 view .LVU1084
.LBB2334:
.LBI2334:
	.loc 2 218 7 view .LVU1085
.LBB2335:
.LBB2336:
.LBI2336:
	.loc 2 210 7 view .LVU1086
.LBB2337:
	.loc 2 211 26 is_stmt 0 view .LVU1087
	movq	(%rsp), %rdi
.LVL318:
.LBB2338:
.LBI2338:
	.loc 2 189 7 is_stmt 1 view .LVU1088
	.loc 2 189 7 is_stmt 0 view .LVU1089
.LBE2338:
.LBE2337:
.LBE2336:
	.loc 2 220 2 view .LVU1090
	addq	$16, %rbx
.LVL319:
	.loc 2 220 2 view .LVU1091
	cmpq	%rbx, %rdi
	je	.L137
.LVL320:
.LBB2339:
.LBI2339:
	.loc 2 225 7 is_stmt 1 view .LVU1092
.LBB2340:
.LBI2340:
	.loc 7 461 7 view .LVU1093
.LBB2341:
.LBI2341:
	.loc 4 116 7 view .LVU1094
.LBB2342:
	.loc 4 125 19 is_stmt 0 view .LVU1095
	call	_ZdlPv@PLT
.LVL321:
.L137:
	.loc 4 125 19 view .LVU1096
.LBE2342:
.LBE2341:
.LBE2340:
.LBE2339:
.LBE2335:
.LBE2334:
.LBB2343:
.LBI2343:
	.loc 2 139 14 is_stmt 1 view .LVU1097
.LBB2344:
.LBI2344:
	.loc 3 139 7 view .LVU1098
.LBB2345:
.LBI2345:
	.loc 4 86 7 view .LVU1099
	.loc 4 86 7 is_stmt 0 view .LVU1100
.LBE2345:
.LBE2344:
.LBE2343:
.LBE2333:
.LBE2393:
.LBE2403:
	.loc 1 94 29 view .LVU1101
	movq	_ZTVNSt8ios_base7failureB5cxx11E@GOTPCREL(%rip), %rax
.LBB2404:
.LBB2394:
	.loc 8 354 68 view .LVU1102
	movl	%r15d, 16(%r13)
	movq	%r14, 24(%r13)
.LVL322:
	.loc 8 354 68 view .LVU1103
.LBE2394:
.LBE2404:
	.loc 1 94 29 view .LVU1104
	addq	$16, %rax
	movq	%rax, 0(%r13)
.LBE2413:
	.loc 1 94 33 view .LVU1105
	addq	$104, %rsp
	.cfi_remember_state
	.cfi_def_cfa_offset 56
.LVL323:
	.loc 1 94 33 view .LVU1106
	popq	%rbx
	.cfi_def_cfa_offset 48
.LVL324:
	.loc 1 94 33 view .LVU1107
	popq	%rbp
	.cfi_def_cfa_offset 40
.LVL325:
	.loc 1 94 33 view .LVU1108
	popq	%r12
	.cfi_def_cfa_offset 32
.LVL326:
	.loc 1 94 33 view .LVU1109
	popq	%r13
	.cfi_def_cfa_offset 24
.LVL327:
	.loc 1 94 33 view .LVU1110
	popq	%r14
	.cfi_def_cfa_offset 16
	popq	%r15
	.cfi_def_cfa_offset 8
	ret
.LVL328:
	.p2align 4,,10
	.p2align 3
.L151:
	.cfi_restore_state
.LBB2414:
.LBB2405:
.LBB2395:
.LBB2346:
.LBB2250:
.LBB2248:
.LBB2246:
.LBI2246:
	.loc 6 346 7 is_stmt 1 view .LVU1111
.LBE2246:
.LBE2248:
.LBE2250:
.LBE2346:
.LBE2395:
.LBE2405:
.LBE2414:
	.loc 6 348 2 view .LVU1112
	.loc 6 350 2 view .LVU1113
	movdqu	16(%rax), %xmm0
	movaps	%xmm0, 48(%rsp)
	jmp	.L132
.LVL329:
	.p2align 4,,10
	.p2align 3
.L152:
.LBB2415:
.LBB2406:
.LBB2396:
.LBB2347:
.LBB2303:
.LBB2301:
.LBB2299:
.LBI2299:
	.loc 6 346 7 view .LVU1114
.LBE2299:
.LBE2301:
.LBE2303:
.LBE2347:
.LBE2396:
.LBE2406:
.LBE2415:
	.loc 6 348 2 view .LVU1115
	.loc 6 350 2 view .LVU1116
	movdqu	16(%rax), %xmm1
	movaps	%xmm1, 80(%rsp)
	jmp	.L134
.LVL330:
	.p2align 4,,10
	.p2align 3
.L150:
.LBB2416:
.LBB2407:
.LBB2397:
.LBB2348:
.LBB2201:
.LBB2195:
.LBB2190:
	.loc 1 59 7 view .LVU1117
	.loc 1 60 11 view .LVU1118
.LBB2171:
.LBI2171:
	.loc 2 703 7 view .LVU1119
.LBB2172:
.LBI2172:
	.loc 2 1426 7 view .LVU1120
	.loc 2 1426 7 is_stmt 0 view .LVU1121
.LBE2172:
.LBE2171:
.LBE2190:
.LBE2195:
.LBE2201:
.LBE2348:
.LBE2397:
.LBE2407:
.LBE2416:
	.loc 6 320 2 is_stmt 1 view .LVU1122
.LBB2417:
.LBB2408:
.LBB2398:
.LBB2349:
.LBB2202:
.LBB2196:
.LBB2191:
.LBB2175:
.LBB2174:
.LBB2173:
	.loc 2 1430 30 is_stmt 0 view .LVU1123
	movl	$14, %r8d
	xorl	%edx, %edx
	xorl	%esi, %esi
.LVL331:
	.loc 2 1430 30 view .LVU1124
	movq	%rbx, %rdi
.LVL332:
	.loc 2 1430 30 view .LVU1125
	leaq	.LC1(%rip), %rcx
.LEHB25:
	call	_ZNSt7__cxx1112basic_stringIcSt11char_traitsIcESaIcEE10_M_replaceEmmPKcm@PLT
.LVL333:
.LEHE25:
	jmp	.L127
.LVL334:
	.p2align 4,,10
	.p2align 3
.L125:
	.loc 2 1430 30 view .LVU1126
.LBE2173:
.LBE2174:
.LBE2175:
.LBE2191:
.LBE2196:
	.loc 8 189 40 view .LVU1127
	movl	%r15d, %edx
	movq	%r14, %rsi
.LVL335:
	.loc 8 189 40 view .LVU1128
	movq	%rbx, %rdi
.LVL336:
.LEHB26:
	.loc 8 189 40 view .LVU1129
	call	*%rax
.LVL337:
.LEHE26:
	jmp	.L127
.LVL338:
.L147:
	.loc 8 189 40 view .LVU1130
	movq	%rax, %rbp
	jmp	.L129
.LVL339:
.L146:
	.loc 8 189 40 view .LVU1131
	movq	%rax, %r13
.LVL340:
	.loc 8 189 40 view .LVU1132
	jmp	.L138
.LVL341:
.L144:
	.loc 8 189 40 view .LVU1133
	movq	%rax, %r12
.LVL342:
	.loc 8 189 40 view .LVU1134
	jmp	.L142
.LVL343:
.L145:
	.loc 8 189 40 view .LVU1135
	movq	%rax, %r12
.LVL344:
	.loc 8 189 40 view .LVU1136
	jmp	.L140
.LVL345:
	.loc 8 189 40 view .LVU1137
.LBE2202:
.LBE2349:
.LBE2398:
.LBE2408:
.LBE2417:
	.section	.gcc_except_table._ZNSt8ios_base7failureB5cxx11C2EPKcRKSt10error_code,"a",@progbits
.LLSDA1426:
	.byte	0xff
	.byte	0xff
	.byte	0x1
	.uleb128 .LLSDACSE1426-.LLSDACSB1426
.LLSDACSB1426:
	.uleb128 .LEHB21-.LFB1426
	.uleb128 .LEHE21-.LEHB21
	.uleb128 .L147-.LFB1426
	.uleb128 0
	.uleb128 .LEHB22-.LFB1426
	.uleb128 .LEHE22-.LEHB22
	.uleb128 .L144-.LFB1426
	.uleb128 0
	.uleb128 .LEHB23-.LFB1426
	.uleb128 .LEHE23-.LEHB23
	.uleb128 .L145-.LFB1426
	.uleb128 0
	.uleb128 .LEHB24-.LFB1426
	.uleb128 .LEHE24-.LEHB24
	.uleb128 .L146-.LFB1426
	.uleb128 0
	.uleb128 .LEHB25-.LFB1426
	.uleb128 .LEHE25-.LEHB25
	.uleb128 .L147-.LFB1426
	.uleb128 0
	.uleb128 .LEHB26-.LFB1426
	.uleb128 .LEHE26-.LEHB26
	.uleb128 0
	.uleb128 0
.LLSDACSE1426:
	.section	.text._ZNSt8ios_base7failureB5cxx11C2EPKcRKSt10error_code
	.cfi_endproc
	.section	.text.unlikely._ZNSt8ios_base7failureB5cxx11C2EPKcRKSt10error_code
	.cfi_startproc
	.cfi_personality 0x9b,DW.ref.__gxx_personality_v0
	.cfi_lsda 0x1b,.LLSDAC1426
	.type	_ZNSt8ios_base7failureB5cxx11C2EPKcRKSt10error_code.cold.27, @function
_ZNSt8ios_base7failureB5cxx11C2EPKcRKSt10error_code.cold.27:
.LBB2418:
.LBB2409:
.LBB2399:
.LBB2350:
.LBB2203:
.L129:
	.cfi_def_cfa_offset 160
	.cfi_offset 3, -56
	.cfi_offset 6, -48
	.cfi_offset 12, -40
	.cfi_offset 13, -32
	.cfi_offset 14, -24
	.cfi_offset 15, -16
.LVL346:
.LBB2197:
.LBB2192:
.LBB2176:
.LBB2177:
	.loc 2 218 7 is_stmt 1 view -0
.LBB2178:
.LBB2179:
.LBI2179:
	.loc 2 210 7 view .LVU1139
.LBB2180:
	.loc 2 211 26 is_stmt 0 view .LVU1140
	movq	(%rsp), %rdi
.LVL347:
	.loc 2 211 26 view .LVU1141
.LBE2180:
.LBE2179:
	.loc 2 220 2 view .LVU1142
	addq	$16, %rbx
.LVL348:
	.loc 2 220 2 view .LVU1143
	cmpq	%rbx, %rdi
	je	.L130
.LVL349:
.LBB2181:
.LBI2181:
	.loc 2 225 7 is_stmt 1 view .LVU1144
.LBB2182:
.LBI2182:
	.loc 7 461 7 view .LVU1145
.LBB2183:
.LBI2183:
	.loc 4 116 7 view .LVU1146
.LBB2184:
	.loc 4 125 19 is_stmt 0 view .LVU1147
	call	_ZdlPv@PLT
.LVL350:
.L130:
	.loc 4 125 19 view .LVU1148
.LBE2184:
.LBE2183:
.LBE2182:
.LBE2181:
.LBE2178:
.LBE2177:
.LBB2185:
.LBI2185:
	.loc 2 139 14 is_stmt 1 view .LVU1149
.LBB2186:
.LBI2186:
	.loc 3 139 7 view .LVU1150
.LBB2187:
.LBI2187:
	.loc 4 86 7 view .LVU1151
	.loc 4 86 7 is_stmt 0 view .LVU1152
	movq	%rbp, %rdi
.LEHB27:
	call	_Unwind_Resume@PLT
.LVL351:
.L138:
	.loc 4 86 7 view .LVU1153
.LBE2187:
.LBE2186:
.LBE2185:
.LBE2176:
.LBE2192:
.LBE2197:
.LBE2203:
.LBE2350:
.LBB2351:
.LBI2351:
	.loc 2 656 7 is_stmt 1 view .LVU1154
.LBB2352:
.LBI2352:
	.loc 2 218 7 view .LVU1155
.LBB2353:
.LBB2354:
.LBI2354:
	.loc 2 210 7 view .LVU1156
.LBB2355:
	.loc 2 211 26 is_stmt 0 view .LVU1157
	movq	64(%rsp), %rdi
.LVL352:
.LBB2356:
.LBI2356:
	.loc 2 189 7 is_stmt 1 view .LVU1158
	.loc 2 189 7 is_stmt 0 view .LVU1159
.LBE2356:
.LBE2355:
.LBE2354:
	.loc 2 220 2 view .LVU1160
	addq	$16, %r12
.LVL353:
	.loc 2 220 2 view .LVU1161
	cmpq	%r12, %rdi
	je	.L139
.LVL354:
.LBB2357:
.LBI2357:
	.loc 2 225 7 is_stmt 1 view .LVU1162
.LBB2358:
.LBI2358:
	.loc 7 461 7 view .LVU1163
.LBB2359:
.LBI2359:
	.loc 4 116 7 view .LVU1164
.LBB2360:
	.loc 4 125 19 is_stmt 0 view .LVU1165
	call	_ZdlPv@PLT
.LVL355:
.L139:
	.loc 4 125 19 view .LVU1166
.LBE2360:
.LBE2359:
.LBE2358:
.LBE2357:
.LBE2353:
.LBE2352:
.LBB2361:
.LBI2361:
	.loc 2 139 14 is_stmt 1 view .LVU1167
.LBB2362:
.LBI2362:
	.loc 3 139 7 view .LVU1168
.LBB2363:
.LBI2363:
	.loc 4 86 7 view .LVU1169
	.loc 4 86 7 is_stmt 0 view .LVU1170
	movq	%r13, %r12
.LVL356:
.L140:
	.loc 4 86 7 view .LVU1171
.LBE2363:
.LBE2362:
.LBE2361:
.LBE2351:
.LBB2364:
.LBI2364:
	.loc 2 656 7 is_stmt 1 view .LVU1172
.LBB2365:
.LBI2365:
	.loc 2 218 7 view .LVU1173
.LBB2366:
.LBB2367:
.LBI2367:
	.loc 2 210 7 view .LVU1174
.LBB2368:
	.loc 2 211 26 is_stmt 0 view .LVU1175
	movq	32(%rsp), %rdi
.LVL357:
.LBB2369:
.LBI2369:
	.loc 2 189 7 is_stmt 1 view .LVU1176
	.loc 2 189 7 is_stmt 0 view .LVU1177
.LBE2369:
.LBE2368:
.LBE2367:
	.loc 2 220 2 view .LVU1178
	addq	$16, %rbp
.LVL358:
	.loc 2 220 2 view .LVU1179
	cmpq	%rbp, %rdi
	je	.L142
.LVL359:
.LBB2370:
.LBI2370:
	.loc 2 225 7 is_stmt 1 view .LVU1180
.LBB2371:
.LBI2371:
	.loc 7 461 7 view .LVU1181
.LBB2372:
.LBI2372:
	.loc 4 116 7 view .LVU1182
.LBB2373:
	.loc 4 125 19 is_stmt 0 view .LVU1183
	call	_ZdlPv@PLT
.LVL360:
	.loc 4 125 19 view .LVU1184
.LBE2373:
.LBE2372:
.LBE2371:
.LBE2370:
.LBE2366:
.LBE2365:
.LBB2374:
.LBI2374:
	.loc 2 139 14 is_stmt 1 view .LVU1185
.LBB2375:
.LBI2375:
	.loc 3 139 7 view .LVU1186
.LBB2376:
.LBI2376:
	.loc 4 86 7 view .LVU1187
.L142:
	.loc 4 86 7 is_stmt 0 view .LVU1188
.LBE2376:
.LBE2375:
.LBE2374:
.LBE2364:
.LBB2377:
.LBI2377:
	.loc 2 656 7 is_stmt 1 view .LVU1189
.LBB2378:
.LBI2378:
	.loc 2 218 7 view .LVU1190
.LBB2379:
.LBB2380:
.LBI2380:
	.loc 2 210 7 view .LVU1191
.LBB2381:
	.loc 2 211 26 is_stmt 0 view .LVU1192
	movq	(%rsp), %rdi
.LVL361:
.LBB2382:
.LBI2382:
	.loc 2 189 7 is_stmt 1 view .LVU1193
	.loc 2 189 7 is_stmt 0 view .LVU1194
.LBE2382:
.LBE2381:
.LBE2380:
	.loc 2 220 2 view .LVU1195
	addq	$16, %rbx
.LVL362:
	.loc 2 220 2 view .LVU1196
	cmpq	%rbx, %rdi
	je	.L143
.LVL363:
.LBB2383:
.LBI2383:
	.loc 2 225 7 is_stmt 1 view .LVU1197
.LBB2384:
.LBI2384:
	.loc 7 461 7 view .LVU1198
.LBB2385:
.LBI2385:
	.loc 4 116 7 view .LVU1199
.LBB2386:
	.loc 4 125 19 is_stmt 0 view .LVU1200
	call	_ZdlPv@PLT
.LVL364:
.L143:
	.loc 4 125 19 view .LVU1201
.LBE2386:
.LBE2385:
.LBE2384:
.LBE2383:
.LBE2379:
.LBE2378:
.LBB2387:
.LBI2387:
	.loc 2 139 14 is_stmt 1 view .LVU1202
.LBB2388:
.LBI2388:
	.loc 3 139 7 view .LVU1203
.LBB2389:
.LBI2389:
	.loc 4 86 7 view .LVU1204
	.loc 4 86 7 is_stmt 0 view .LVU1205
	movq	%r12, %rdi
	call	_Unwind_Resume@PLT
.LVL365:
.LEHE27:
.LBE2389:
.LBE2388:
.LBE2387:
.LBE2377:
.LBE2399:
.LBE2409:
.LBE2418:
	.cfi_endproc
.LFE1426:
	.section	.gcc_except_table._ZNSt8ios_base7failureB5cxx11C2EPKcRKSt10error_code
.LLSDAC1426:
	.byte	0xff
	.byte	0xff
	.byte	0x1
	.uleb128 .LLSDACSEC1426-.LLSDACSBC1426
.LLSDACSBC1426:
	.uleb128 .LEHB27-.LCOLDB8
	.uleb128 .LEHE27-.LEHB27
	.uleb128 0
	.uleb128 0
.LLSDACSEC1426:
	.section	.text.unlikely._ZNSt8ios_base7failureB5cxx11C2EPKcRKSt10error_code
	.section	.text._ZNSt8ios_base7failureB5cxx11C2EPKcRKSt10error_code
	.size	_ZNSt8ios_base7failureB5cxx11C2EPKcRKSt10error_code, .-_ZNSt8ios_base7failureB5cxx11C2EPKcRKSt10error_code
	.section	.text.unlikely._ZNSt8ios_base7failureB5cxx11C2EPKcRKSt10error_code
	.size	_ZNSt8ios_base7failureB5cxx11C2EPKcRKSt10error_code.cold.27, .-_ZNSt8ios_base7failureB5cxx11C2EPKcRKSt10error_code.cold.27
.LCOLDE8:
	.section	.text._ZNSt8ios_base7failureB5cxx11C2EPKcRKSt10error_code
.LHOTE8:
	.globl	_ZNSt8ios_base7failureB5cxx11C1EPKcRKSt10error_code
	.set	_ZNSt8ios_base7failureB5cxx11C1EPKcRKSt10error_code,_ZNSt8ios_base7failureB5cxx11C2EPKcRKSt10error_code
	.section	.text.unlikely._ZSt19__throw_ios_failurePKc,"ax",@progbits
.LCOLDB9:
	.section	.text._ZSt19__throw_ios_failurePKc,"ax",@progbits
.LHOTB9:
	.p2align 4,,15
	.globl	_ZSt19__throw_ios_failurePKc
	.type	_ZSt19__throw_ios_failurePKc, @function
_ZSt19__throw_ios_failurePKc:
.LVL366:
.LFB1445:
	.loc 1 162 3 is_stmt 1 view -0
	.cfi_startproc
	.cfi_personality 0x9b,DW.ref.__gxx_personality_v0
	.cfi_lsda 0x1b,.LLSDA1445
	.loc 1 162 5 view .LVU1207
	.loc 1 162 3 is_stmt 0 view .LVU1208
	pushq	%rbp
	.cfi_def_cfa_offset 16
	.cfi_offset 6, -16
	movq	%rdi, %rbp
	.loc 1 162 5 view .LVU1209
	movl	$48, %edi
.LVL367:
	.loc 1 162 3 view .LVU1210
	pushq	%rbx
	.cfi_def_cfa_offset 24
	.cfi_offset 3, -24
	subq	$24, %rsp
	.cfi_def_cfa_offset 48
	.loc 1 162 5 view .LVU1211
	call	__cxa_allocate_exception@PLT
.LVL368:
	movq	%rax, %rbx
.LVL369:
.LBB2428:
.LBI2428:
	.loc 1 114 5 is_stmt 1 view .LVU1212
.LBB2429:
.LBB2430:
.LBI2430:
	.loc 8 156 7 view .LVU1213
.LBB2431:
.LBB2432:
.LBB2433:
.LBI2433:
	.loc 9 210 3 view .LVU1214
.LBB2434:
	.loc 9 211 5 view .LVU1215
	.loc 9 211 12 is_stmt 0 view .LVU1216
	call	_ZSt17iostream_categoryv@PLT
.LVL370:
.LBB2435:
.LBI2435:
	.loc 8 151 5 is_stmt 1 view .LVU1217
	.loc 8 151 5 is_stmt 0 view .LVU1218
.LBE2435:
.LBE2434:
.LBE2433:
.LBE2432:
.LBE2431:
.LBE2430:
	.loc 1 114 45 view .LVU1219
	movq	%rsp, %rdx
	movq	%rbp, %rsi
	movq	%rbx, %rdi
.LBB2438:
.LBB2437:
.LBB2436:
	.loc 8 157 32 view .LVU1220
	movl	$1, (%rsp)
	movq	%rax, 8(%rsp)
.LVL371:
.LEHB28:
	.loc 8 157 32 view .LVU1221
.LBE2436:
.LBE2437:
.LBE2438:
	.loc 1 114 45 view .LVU1222
	call	_ZNSt8ios_base7failureB5cxx11C2EPKcRKSt10error_code@PLT
.LVL372:
.LEHE28:
	movq	_ZTVSt13__ios_failure@GOTPCREL(%rip), %rax
	.loc 1 115 30 view .LVU1223
	movq	%rbx, %rdi
	.loc 1 114 45 view .LVU1224
	addq	$16, %rax
	movq	%rax, (%rbx)
	.loc 1 115 7 is_stmt 1 view .LVU1225
	.loc 1 115 30 is_stmt 0 view .LVU1226
	call	_ZNKSt13runtime_error4whatEv@PLT
.LVL373:
	.loc 1 115 31 view .LVU1227
	leaq	32(%rbx), %rdi
	.loc 1 115 30 view .LVU1228
	movq	%rax, %rsi
.LEHB29:
	call	_ZSt23__construct_ios_failurePvPKc@PLT
.LVL374:
.LEHE29:
	.loc 1 115 30 view .LVU1229
.LBE2429:
.LBE2428:
	.loc 1 162 5 discriminator 2 view .LVU1230
	movq	_ZNSt13__ios_failureD1Ev@GOTPCREL(%rip), %rdx
	movq	_ZTISt13__ios_failure@GOTPCREL(%rip), %rsi
	movq	%rbx, %rdi
.LEHB30:
	call	__cxa_throw@PLT
.LVL375:
.LEHE30:
.L157:
	.loc 1 162 5 discriminator 2 view .LVU1231
	movq	%rax, %rbp
.LVL376:
	.loc 1 162 5 discriminator 2 view .LVU1232
	jmp	.L156
.LVL377:
.L158:
	.loc 1 162 5 discriminator 2 view .LVU1233
	movq	%rax, %rbp
.LVL378:
	.loc 1 162 5 discriminator 2 view .LVU1234
	jmp	.L155
	.section	.gcc_except_table._ZSt19__throw_ios_failurePKc,"a",@progbits
.LLSDA1445:
	.byte	0xff
	.byte	0xff
	.byte	0x1
	.uleb128 .LLSDACSE1445-.LLSDACSB1445
.LLSDACSB1445:
	.uleb128 .LEHB28-.LFB1445
	.uleb128 .LEHE28-.LEHB28
	.uleb128 .L157-.LFB1445
	.uleb128 0
	.uleb128 .LEHB29-.LFB1445
	.uleb128 .LEHE29-.LEHB29
	.uleb128 .L158-.LFB1445
	.uleb128 0
	.uleb128 .LEHB30-.LFB1445
	.uleb128 .LEHE30-.LEHB30
	.uleb128 0
	.uleb128 0
.LLSDACSE1445:
	.section	.text._ZSt19__throw_ios_failurePKc
	.cfi_endproc
	.section	.text.unlikely._ZSt19__throw_ios_failurePKc
	.cfi_startproc
	.cfi_personality 0x9b,DW.ref.__gxx_personality_v0
	.cfi_lsda 0x1b,.LLSDAC1445
	.type	_ZSt19__throw_ios_failurePKc.cold.28, @function
_ZSt19__throw_ios_failurePKc.cold.28:
.L155:
	.cfi_def_cfa_offset 48
	.cfi_offset 3, -24
	.cfi_offset 6, -16
.LBB2440:
.LBB2439:
	.loc 1 114 45 view -0
	movq	%rbx, %rdi
	call	_ZNSt8ios_base7failureB5cxx11D2Ev@PLT
.LVL379:
.L156:
	.loc 1 114 45 view .LVU1236
.LBE2439:
.LBE2440:
	.loc 1 162 5 discriminator 1 view .LVU1237
	movq	%rbx, %rdi
	call	__cxa_free_exception@PLT
.LVL380:
	movq	%rbp, %rdi
.LEHB31:
	call	_Unwind_Resume@PLT
.LVL381:
.LEHE31:
	.cfi_endproc
.LFE1445:
	.section	.gcc_except_table._ZSt19__throw_ios_failurePKc
.LLSDAC1445:
	.byte	0xff
	.byte	0xff
	.byte	0x1
	.uleb128 .LLSDACSEC1445-.LLSDACSBC1445
.LLSDACSBC1445:
	.uleb128 .LEHB31-.LCOLDB9
	.uleb128 .LEHE31-.LEHB31
	.uleb128 0
	.uleb128 0
.LLSDACSEC1445:
	.section	.text.unlikely._ZSt19__throw_ios_failurePKc
	.section	.text._ZSt19__throw_ios_failurePKc
	.size	_ZSt19__throw_ios_failurePKc, .-_ZSt19__throw_ios_failurePKc
	.section	.text.unlikely._ZSt19__throw_ios_failurePKc
	.size	_ZSt19__throw_ios_failurePKc.cold.28, .-_ZSt19__throw_ios_failurePKc.cold.28
.LCOLDE9:
	.section	.text._ZSt19__throw_ios_failurePKc
.LHOTE9:
	.weak	_ZTSNSt8ios_base7failureB5cxx11E
	.section	.rodata._ZTSNSt8ios_base7failureB5cxx11E,"aG",@progbits,_ZTSNSt8ios_base7failureB5cxx11E,comdat
	.align 16
	.type	_ZTSNSt8ios_base7failureB5cxx11E, @object
	.size	_ZTSNSt8ios_base7failureB5cxx11E, 29
_ZTSNSt8ios_base7failureB5cxx11E:
	.string	"NSt8ios_base7failureB5cxx11E"
	.weak	_ZTINSt8ios_base7failureB5cxx11E
	.section	.data.rel.ro._ZTINSt8ios_base7failureB5cxx11E,"awG",@progbits,_ZTINSt8ios_base7failureB5cxx11E,comdat
	.align 8
	.type	_ZTINSt8ios_base7failureB5cxx11E, @object
	.size	_ZTINSt8ios_base7failureB5cxx11E, 24
_ZTINSt8ios_base7failureB5cxx11E:
	.quad	_ZTVN10__cxxabiv120__si_class_type_infoE+16
	.quad	_ZTSNSt8ios_base7failureB5cxx11E
	.quad	_ZTISt12system_error
	.section	.data.rel.ro._ZTIN12_GLOBAL__N_117io_error_categoryE,"aw"
	.align 8
	.type	_ZTIN12_GLOBAL__N_117io_error_categoryE, @object
	.size	_ZTIN12_GLOBAL__N_117io_error_categoryE, 24
_ZTIN12_GLOBAL__N_117io_error_categoryE:
	.quad	_ZTVN10__cxxabiv120__si_class_type_infoE+16
	.quad	_ZTSN12_GLOBAL__N_117io_error_categoryE
	.quad	_ZTINSt3_V214error_categoryE
	.section	.rodata._ZTSN12_GLOBAL__N_117io_error_categoryE,"a"
	.align 32
	.type	_ZTSN12_GLOBAL__N_117io_error_categoryE, @object
	.size	_ZTSN12_GLOBAL__N_117io_error_categoryE, 37
_ZTSN12_GLOBAL__N_117io_error_categoryE:
	.string	"*N12_GLOBAL__N_117io_error_categoryE"
	.weak	_ZTSSt13__ios_failure
	.section	.rodata._ZTSSt13__ios_failure,"aG",@progbits,_ZTSSt13__ios_failure,comdat
	.align 16
	.type	_ZTSSt13__ios_failure, @object
	.size	_ZTSSt13__ios_failure, 18
_ZTSSt13__ios_failure:
	.string	"St13__ios_failure"
	.weak	_ZTISt13__ios_failure
	.section	.data.rel.ro._ZTISt13__ios_failure,"awG",@progbits,_ZTISt13__ios_failure,comdat
	.align 8
	.type	_ZTISt13__ios_failure, @object
	.size	_ZTISt13__ios_failure, 24
_ZTISt13__ios_failure:
	.quad	_ZTVSt19__iosfail_type_info+16
	.quad	_ZTSSt13__ios_failure
	.quad	_ZTINSt8ios_base7failureB5cxx11E
	.weak	_ZTSSt19__iosfail_type_info
	.section	.rodata._ZTSSt19__iosfail_type_info,"aG",@progbits,_ZTSSt19__iosfail_type_info,comdat
	.align 16
	.type	_ZTSSt19__iosfail_type_info, @object
	.size	_ZTSSt19__iosfail_type_info, 24
_ZTSSt19__iosfail_type_info:
	.string	"St19__iosfail_type_info"
	.weak	_ZTISt19__iosfail_type_info
	.section	.data.rel.ro._ZTISt19__iosfail_type_info,"awG",@progbits,_ZTISt19__iosfail_type_info,comdat
	.align 8
	.type	_ZTISt19__iosfail_type_info, @object
	.size	_ZTISt19__iosfail_type_info, 40
_ZTISt19__iosfail_type_info:
	.quad	_ZTVN10__cxxabiv121__vmi_class_type_infoE+16
	.quad	_ZTSSt19__iosfail_type_info
	.long	0
	.long	1
	.quad	_ZTIN10__cxxabiv120__si_class_type_infoE
	.quad	0
	.section	.data.rel.ro._ZTVN12_GLOBAL__N_117io_error_categoryE,"aw"
	.align 8
	.type	_ZTVN12_GLOBAL__N_117io_error_categoryE, @object
	.size	_ZTVN12_GLOBAL__N_117io_error_categoryE, 80
_ZTVN12_GLOBAL__N_117io_error_categoryE:
	.quad	0
	.quad	_ZTIN12_GLOBAL__N_117io_error_categoryE
	.quad	_ZN12_GLOBAL__N_117io_error_categoryD1Ev
	.quad	_ZN12_GLOBAL__N_117io_error_categoryD0Ev
	.quad	_ZNK12_GLOBAL__N_117io_error_category4nameEv
	.quad	_ZNKSt3_V214error_category10_M_messageB5cxx11Ei
	.quad	_ZNK12_GLOBAL__N_117io_error_category7messageB5cxx11Ei
	.quad	_ZNKSt3_V214error_category23default_error_conditionEi
	.quad	_ZNKSt3_V214error_category10equivalentEiRKSt15error_condition
	.quad	_ZNKSt3_V214error_category10equivalentERKSt10error_codei
	.weak	_ZTVNSt8ios_base7failureB5cxx11E
	.section	.data.rel.ro._ZTVNSt8ios_base7failureB5cxx11E,"awG",@progbits,_ZTVNSt8ios_base7failureB5cxx11E,comdat
	.align 8
	.type	_ZTVNSt8ios_base7failureB5cxx11E, @object
	.size	_ZTVNSt8ios_base7failureB5cxx11E, 40
_ZTVNSt8ios_base7failureB5cxx11E:
	.quad	0
	.quad	_ZTINSt8ios_base7failureB5cxx11E
	.quad	_ZNSt8ios_base7failureB5cxx11D1Ev
	.quad	_ZNSt8ios_base7failureB5cxx11D0Ev
	.quad	_ZNKSt8ios_base7failureB5cxx114whatEv
	.weak	_ZTVSt13__ios_failure
	.section	.data.rel.ro._ZTVSt13__ios_failure,"awG",@progbits,_ZTVSt13__ios_failure,comdat
	.align 8
	.type	_ZTVSt13__ios_failure, @object
	.size	_ZTVSt13__ios_failure, 40
_ZTVSt13__ios_failure:
	.quad	0
	.quad	_ZTISt13__ios_failure
	.quad	_ZNSt13__ios_failureD1Ev
	.quad	_ZNSt13__ios_failureD0Ev
	.quad	_ZNKSt8ios_base7failureB5cxx114whatEv
	.weak	_ZTVSt19__iosfail_type_info
	.section	.data.rel.ro._ZTVSt19__iosfail_type_info,"awG",@progbits,_ZTVSt19__iosfail_type_info,comdat
	.align 8
	.type	_ZTVSt19__iosfail_type_info, @object
	.size	_ZTVSt19__iosfail_type_info, 88
_ZTVSt19__iosfail_type_info:
	.quad	0
	.quad	_ZTISt19__iosfail_type_info
	.quad	_ZNSt19__iosfail_type_infoD1Ev
	.quad	_ZNSt19__iosfail_type_infoD0Ev
	.quad	_ZNKSt9type_info14__is_pointer_pEv
	.quad	_ZNKSt9type_info15__is_function_pEv
	.quad	_ZNK10__cxxabiv117__class_type_info10__do_catchEPKSt9type_infoPPvj
	.quad	_ZNKSt19__iosfail_type_info11__do_upcastEPKN10__cxxabiv117__class_type_infoEPPv
	.quad	_ZNK10__cxxabiv120__si_class_type_info11__do_upcastEPKNS_17__class_type_infoEPKvRNS1_15__upcast_resultE
	.quad	_ZNK10__cxxabiv120__si_class_type_info12__do_dyncastElNS_17__class_type_info10__sub_kindEPKS1_PKvS4_S6_RNS1_16__dyncast_resultE
	.quad	_ZNK10__cxxabiv120__si_class_type_info20__do_find_public_srcElPKvPKNS_17__class_type_infoES2_
	.section	.bss._ZGVZN12_GLOBAL__N_122__io_category_instanceEvE4__ec,"aw",@nobits
	.align 8
	.type	_ZGVZN12_GLOBAL__N_122__io_category_instanceEvE4__ec, @object
	.size	_ZGVZN12_GLOBAL__N_122__io_category_instanceEvE4__ec, 8
_ZGVZN12_GLOBAL__N_122__io_category_instanceEvE4__ec:
	.zero	8
	.section	.data.rel.local._ZZN12_GLOBAL__N_122__io_category_instanceEvE4__ec,"aw"
	.align 8
	.type	_ZZN12_GLOBAL__N_122__io_category_instanceEvE4__ec, @object
	.size	_ZZN12_GLOBAL__N_122__io_category_instanceEvE4__ec, 8
_ZZN12_GLOBAL__N_122__io_category_instanceEvE4__ec:
	.quad	_ZTVN12_GLOBAL__N_117io_error_categoryE+16
	.text
.Letext0:
	.section	.text.unlikely._ZNK12_GLOBAL__N_117io_error_category7messageB5cxx11Ei
.Letext_cold0:
	.file 11 "/mnt/lfs/sources/gcc-8.2.0/build/x86_64-pc-linux-gnu/libstdc++-v3/include/bits/basic_string.tcc"
	.file 12 "/mnt/lfs/sources/gcc-8.2.0/build/x86_64-pc-linux-gnu/libstdc++-v3/include/bits/stringfwd.h"
	.file 13 "/mnt/lfs/sources/gcc-8.2.0/build/x86_64-pc-linux-gnu/libstdc++-v3/include/cwchar"
	.file 14 "/mnt/lfs/sources/gcc-8.2.0/libstdc++-v3/libsupc++/new"
	.file 15 "/mnt/lfs/sources/gcc-8.2.0/build/x86_64-pc-linux-gnu/libstdc++-v3/include/bits/exception_ptr.h"
	.file 16 "/mnt/lfs/sources/gcc-8.2.0/build/x86_64-pc-linux-gnu/libstdc++-v3/include/x86_64-pc-linux-gnu/bits/c++config.h"
	.file 17 "/mnt/lfs/sources/gcc-8.2.0/build/x86_64-pc-linux-gnu/libstdc++-v3/include/type_traits"
	.file 18 "/mnt/lfs/sources/gcc-8.2.0/build/x86_64-pc-linux-gnu/libstdc++-v3/include/bits/stl_pair.h"
	.file 19 "/mnt/lfs/sources/gcc-8.2.0/build/x86_64-pc-linux-gnu/libstdc++-v3/include/bits/cpp_type_traits.h"
	.file 20 "/mnt/lfs/sources/gcc-8.2.0/build/x86_64-pc-linux-gnu/libstdc++-v3/include/bits/stl_iterator_base_types.h"
	.file 21 "/mnt/lfs/sources/gcc-8.2.0/build/x86_64-pc-linux-gnu/libstdc++-v3/include/debug/debug.h"
	.file 22 "/mnt/lfs/sources/gcc-8.2.0/build/x86_64-pc-linux-gnu/libstdc++-v3/include/cstdint"
	.file 23 "/mnt/lfs/sources/gcc-8.2.0/build/x86_64-pc-linux-gnu/libstdc++-v3/include/clocale"
	.file 24 "/mnt/lfs/sources/gcc-8.2.0/build/x86_64-pc-linux-gnu/libstdc++-v3/include/cstdlib"
	.file 25 "/mnt/lfs/sources/gcc-8.2.0/build/x86_64-pc-linux-gnu/libstdc++-v3/include/cstdio"
	.file 26 "/mnt/lfs/sources/gcc-8.2.0/libstdc++-v3/libsupc++/initializer_list"
	.file 27 "/mnt/lfs/sources/gcc-8.2.0/build/x86_64-pc-linux-gnu/libstdc++-v3/include/cwctype"
	.file 28 "/mnt/lfs/sources/gcc-8.2.0/build/x86_64-pc-linux-gnu/libstdc++-v3/include/bits/ptr_traits.h"
	.file 29 "/mnt/lfs/sources/gcc-8.2.0/build/x86_64-pc-linux-gnu/libstdc++-v3/include/bits/stl_iterator_base_funcs.h"
	.file 30 "/mnt/lfs/sources/gcc-8.2.0/build/x86_64-pc-linux-gnu/libstdc++-v3/include/bits/functexcept.h"
	.file 31 "/mnt/lfs/sources/gcc-8.2.0/build/x86_64-pc-linux-gnu/libstdc++-v3/include/bits/predefined_ops.h"
	.file 32 "/mnt/lfs/sources/gcc-8.2.0/build/x86_64-pc-linux-gnu/libstdc++-v3/include/bits/stl_iterator.h"
	.file 33 "/mnt/lfs/sources/gcc-8.2.0/build/x86_64-pc-linux-gnu/libstdc++-v3/include/ext/type_traits.h"
	.file 34 "/mnt/lfs/sources/gcc-8.2.0/build/gcc/include/stddef.h"
	.file 35 "<built-in>"
	.file 36 "/tools/include/bits/types/wint_t.h"
	.file 37 "/tools/include/bits/types/__mbstate_t.h"
	.file 38 "/tools/include/bits/types/mbstate_t.h"
	.file 39 "/tools/include/bits/types/__FILE.h"
	.file 40 "/tools/include/bits/types/struct_FILE.h"
	.file 41 "/tools/include/bits/types/FILE.h"
	.file 42 "/tools/include/wchar.h"
	.file 43 "/tools/include/bits/types/struct_tm.h"
	.file 44 "/tools/include/bits/types.h"
	.file 45 "/tools/include/bits/stdint-intn.h"
	.file 46 "/tools/include/bits/stdint-uintn.h"
	.file 47 "/tools/include/stdint.h"
	.file 48 "/tools/include/locale.h"
	.file 49 "/tools/include/time.h"
	.file 50 "/tools/include/stdlib.h"
	.file 51 "/tools/include/bits/stdlib-float.h"
	.file 52 "/tools/include/bits/stdlib-bsearch.h"
	.file 53 "/tools/include/bits/types/__fpos_t.h"
	.file 54 "/tools/include/stdio.h"
	.file 55 "/tools/include/bits/sys_errlist.h"
	.file 56 "/tools/include/bits/stdio.h"
	.file 57 "/tools/include/errno.h"
	.file 58 "/tools/include/bits/wctype-wchar.h"
	.file 59 "/tools/include/wctype.h"
	.file 60 "/mnt/lfs/sources/gcc-8.2.0/libstdc++-v3/libsupc++/cxxabi.h"
	.section	.data.rel.local.DW.ref.__gxx_personality_v0,"awG",@progbits,DW.ref.__gxx_personality_v0,comdat
	.align 8
	.type	DW.ref.__gxx_personality_v0, @object
	.size	DW.ref.__gxx_personality_v0, 8
DW.ref.__gxx_personality_v0:
	.quad	__gxx_personality_v0
	.hidden	__dso_handle
	.ident	"GCC: (GNU) 8.2.0"
	.section	.note.GNU-stack,"",@progbits
